Microsoft (R) COFF/PE Dumper Version 14.00.23026.0
Copyright (C) Microsoft Corporation.  All rights reserved.


Dump of file mustang-q.dll

File Type: DLL

  Section contains the following exports for mustang-q.dll

    00000000 characteristics
    58C93D84 time date stamp Wed Mar 15 08:11:32 2017
        0.00 version
           1 ordinal base
         857 number of functions
         857 number of names

    ordinal hint RVA      name

          1    0 0000186B ??0application@mst@@QEAA@HQEAPEBDH@Z = @ILT+2150(??0application@mst@@QEAA@HQEAPEBDH@Z)
          2    1 000010AA ??0base@mst@@QEAA@PEAVbase_private@1@@Z = @ILT+165(??0base@mst@@QEAA@PEAVbase_private@1@@Z)
          3    2 00001D70 ??0base@mst@@QEAA@XZ = @ILT+3435(??0base@mst@@QEAA@XZ)
          4    3 00001CD5 ??0button@mst@@QEAA@PEAVbutton_private@1@PEAVwidget@1@@Z = @ILT+3280(??0button@mst@@QEAA@PEAVbutton_private@1@PEAVwidget@1@@Z)
          5    4 00004165 ??0button@mst@@QEAA@PEAVwidget@1@@Z = @ILT+12640(??0button@mst@@QEAA@PEAVwidget@1@@Z)
          6    5 0000544D ??0color@mst@@QEAA@EEEE@Z = @ILT+17480(??0color@mst@@QEAA@EEEE@Z)
          7    6 00002676 ??0const_iterator@int_collection@mst@@QEAA@AEBV012@@Z = @ILT+5745(??0const_iterator@int_collection@mst@@QEAA@AEBV012@@Z)
          8    7 00001A73 ??0const_iterator@int_collection@mst@@QEAA@XZ = @ILT+2670(??0const_iterator@int_collection@mst@@QEAA@XZ)
          9    8 00002C3E ??0const_iterator@mstring@mst@@QEAA@AEBV012@@Z = @ILT+7225(??0const_iterator@mstring@mst@@QEAA@AEBV012@@Z)
         10    9 00001942 ??0const_iterator@mstring@mst@@QEAA@XZ = @ILT+2365(??0const_iterator@mstring@mst@@QEAA@XZ)
         11    A 00006F0A ??0const_iterator@object_collection@mst@@QEAA@AEBV012@@Z = @ILT+24325(??0const_iterator@object_collection@mst@@QEAA@AEBV012@@Z)
         12    B 000068DE ??0const_iterator@object_collection@mst@@QEAA@XZ = @ILT+22745(??0const_iterator@object_collection@mst@@QEAA@XZ)
         13    C 0000487C ??0const_iterator@point_collection@mst@@QEAA@AEBV012@@Z = @ILT+14455(??0const_iterator@point_collection@mst@@QEAA@AEBV012@@Z)
         14    D 0000180C ??0const_iterator@point_collection@mst@@QEAA@XZ = @ILT+2055(??0const_iterator@point_collection@mst@@QEAA@XZ)
         15    E 00003544 ??0const_iterator@widget_collection@mst@@QEAA@AEBV012@@Z = @ILT+9535(??0const_iterator@widget_collection@mst@@QEAA@AEBV012@@Z)
         16    F 00005A47 ??0const_iterator@widget_collection@mst@@QEAA@XZ = @ILT+19010(??0const_iterator@widget_collection@mst@@QEAA@XZ)
         17   10 00001DC5 ??0const_reverse_iterator@int_collection@mst@@QEAA@AEBV012@@Z = @ILT+3520(??0const_reverse_iterator@int_collection@mst@@QEAA@AEBV012@@Z)
         18   11 000073BA ??0const_reverse_iterator@int_collection@mst@@QEAA@XZ = @ILT+25525(??0const_reverse_iterator@int_collection@mst@@QEAA@XZ)
         19   12 00001C03 ??0const_reverse_iterator@mstring@mst@@QEAA@AEBV012@@Z = @ILT+3070(??0const_reverse_iterator@mstring@mst@@QEAA@AEBV012@@Z)
         20   13 000069B0 ??0const_reverse_iterator@mstring@mst@@QEAA@XZ = @ILT+22955(??0const_reverse_iterator@mstring@mst@@QEAA@XZ)
         21   14 0000605A ??0const_reverse_iterator@object_collection@mst@@QEAA@AEBV012@@Z = @ILT+20565(??0const_reverse_iterator@object_collection@mst@@QEAA@AEBV012@@Z)
         22   15 0000516E ??0const_reverse_iterator@object_collection@mst@@QEAA@XZ = @ILT+16745(??0const_reverse_iterator@object_collection@mst@@QEAA@XZ)
         23   16 00006DB1 ??0const_reverse_iterator@point_collection@mst@@QEAA@AEBV012@@Z = @ILT+23980(??0const_reverse_iterator@point_collection@mst@@QEAA@AEBV012@@Z)
         24   17 000071A8 ??0const_reverse_iterator@point_collection@mst@@QEAA@XZ = @ILT+24995(??0const_reverse_iterator@point_collection@mst@@QEAA@XZ)
         25   18 000020E0 ??0const_reverse_iterator@widget_collection@mst@@QEAA@AEBV012@@Z = @ILT+4315(??0const_reverse_iterator@widget_collection@mst@@QEAA@AEBV012@@Z)
         26   19 00006217 ??0const_reverse_iterator@widget_collection@mst@@QEAA@XZ = @ILT+21010(??0const_reverse_iterator@widget_collection@mst@@QEAA@XZ)
         27   1A 000043F4 ??0handler_connection_base@mst@@QEAA@PEAVmethod_ptr_base@1@0@Z = @ILT+13295(??0handler_connection_base@mst@@QEAA@PEAVmethod_ptr_base@1@0@Z)
         28   1B 00002AF9 ??0image@mst@@QEAA@HH@Z = @ILT+6900(??0image@mst@@QEAA@HH@Z)
         29   1C 00002D7E ??0int_collection@mst@@QEAA@$$QEAV01@@Z = @ILT+7545(??0int_collection@mst@@QEAA@$$QEAV01@@Z)
         30   1D 000020F9 ??0int_collection@mst@@QEAA@AEBV01@@Z = @ILT+4340(??0int_collection@mst@@QEAA@AEBV01@@Z)
         31   1E 00001E6F ??0int_collection@mst@@QEAA@Vconst_iterator@01@0@Z = @ILT+3690(??0int_collection@mst@@QEAA@Vconst_iterator@01@0@Z)
         32   1F 0000424B ??0int_collection@mst@@QEAA@Viterator@01@0@Z = @ILT+12870(??0int_collection@mst@@QEAA@Viterator@01@0@Z)
         33   20 00002F27 ??0int_collection@mst@@QEAA@XZ = @ILT+7970(??0int_collection@mst@@QEAA@XZ)
         34   21 00003990 ??0int_collection@mst@@QEAA@_K@Z = @ILT+10635(??0int_collection@mst@@QEAA@_K@Z)
         35   22 00001E3D ??0int_collection@mst@@QEAA@_KAEBH@Z = @ILT+3640(??0int_collection@mst@@QEAA@_KAEBH@Z)
         36   23 00005EED ??0iterator@int_collection@mst@@QEAA@AEBV012@@Z = @ILT+20200(??0iterator@int_collection@mst@@QEAA@AEBV012@@Z)
         37   24 00005E84 ??0iterator@int_collection@mst@@QEAA@XZ = @ILT+20095(??0iterator@int_collection@mst@@QEAA@XZ)
         38   25 000027B6 ??0iterator@mstring@mst@@QEAA@AEBV012@@Z = @ILT+6065(??0iterator@mstring@mst@@QEAA@AEBV012@@Z)
         39   26 0000508D ??0iterator@mstring@mst@@QEAA@XZ = @ILT+16520(??0iterator@mstring@mst@@QEAA@XZ)
         40   27 00004615 ??0iterator@object_collection@mst@@QEAA@AEBV012@@Z = @ILT+13840(??0iterator@object_collection@mst@@QEAA@AEBV012@@Z)
         41   28 00001456 ??0iterator@object_collection@mst@@QEAA@XZ = @ILT+1105(??0iterator@object_collection@mst@@QEAA@XZ)
         42   29 00002A90 ??0iterator@point_collection@mst@@QEAA@AEBV012@@Z = @ILT+6795(??0iterator@point_collection@mst@@QEAA@AEBV012@@Z)
         43   2A 00006118 ??0iterator@point_collection@mst@@QEAA@XZ = @ILT+20755(??0iterator@point_collection@mst@@QEAA@XZ)
         44   2B 00007045 ??0iterator@widget_collection@mst@@QEAA@AEBV012@@Z = @ILT+24640(??0iterator@widget_collection@mst@@QEAA@AEBV012@@Z)
         45   2C 000017EE ??0iterator@widget_collection@mst@@QEAA@XZ = @ILT+2025(??0iterator@widget_collection@mst@@QEAA@XZ)
         46   2D 00004C7D ??0method_addr@mst@@QEAA@XZ = @ILT+15480(??0method_addr@mst@@QEAA@XZ)
         47   2E 00004A66 ??0method_ptr_base@mst@@QEAA@PEAVwidget@1@PEAXAEBV?$basic_string@DU?$char_traits@D@std@@V?$allocator@D@2@@std@@@Z = @ILT+14945(??0method_ptr_base@mst@@QEAA@PEAVwidget@1@PEAXAEBV?$basic_string@DU?$char_traits@D@std@@V?$allocator@D@2@@std@@@Z)
         48   2F 00002149 ??0method_ptr_base@mst@@QEAA@PEAVwidget@1@PEAXPEBD@Z = @ILT+4420(??0method_ptr_base@mst@@QEAA@PEAVwidget@1@PEAXPEBD@Z)
         49   30 00003F26 ??0mstring@mst@@QEAA@$$QEAV01@@Z = @ILT+12065(??0mstring@mst@@QEAA@$$QEAV01@@Z)
         50   31 00002DF1 ??0mstring@mst@@QEAA@AEBV01@@Z = @ILT+7660(??0mstring@mst@@QEAA@AEBV01@@Z)
         51   32 0000295F ??0mstring@mst@@QEAA@AEBV01@_K1@Z = @ILT+6490(??0mstring@mst@@QEAA@AEBV01@_K1@Z)
         52   33 00003846 ??0mstring@mst@@QEAA@AEBV01@_K@Z = @ILT+10305(??0mstring@mst@@QEAA@AEBV01@_K@Z)
         53   34 00006055 ??0mstring@mst@@QEAA@AEBV?$basic_string@DU?$char_traits@D@std@@V?$allocator@D@2@@std@@@Z = @ILT+20560(??0mstring@mst@@QEAA@AEBV?$basic_string@DU?$char_traits@D@std@@V?$allocator@D@2@@std@@@Z)
         54   35 00005B69 ??0mstring@mst@@QEAA@PEBD@Z = @ILT+19300(??0mstring@mst@@QEAA@PEBD@Z)
         55   36 000068FC ??0mstring@mst@@QEAA@PEBD_K@Z = @ILT+22775(??0mstring@mst@@QEAA@PEBD_K@Z)
         56   37 000066F9 ??0mstring@mst@@QEAA@Vconst_iterator@01@0@Z = @ILT+22260(??0mstring@mst@@QEAA@Vconst_iterator@01@0@Z)
         57   38 00003940 ??0mstring@mst@@QEAA@Viterator@01@0@Z = @ILT+10555(??0mstring@mst@@QEAA@Viterator@01@0@Z)
         58   39 00001F50 ??0mstring@mst@@QEAA@XZ = @ILT+3915(??0mstring@mst@@QEAA@XZ)
         59   3A 00003FB2 ??0mstring@mst@@QEAA@_K@Z = @ILT+12205(??0mstring@mst@@QEAA@_K@Z)
         60   3B 000034A4 ??0mstring@mst@@QEAA@_KAEBD@Z = @ILT+9375(??0mstring@mst@@QEAA@_KAEBD@Z)
         61   3C 000024D2 ??0object@mst@@QEAA@PEAV01@@Z = @ILT+5325(??0object@mst@@QEAA@PEAV01@@Z)
         62   3D 00001A4B ??0object@mst@@QEAA@PEAVobject_private@1@PEAV01@@Z = @ILT+2630(??0object@mst@@QEAA@PEAVobject_private@1@PEAV01@@Z)
         63   3E 00005290 ??0object_collection@mst@@QEAA@$$QEAV01@@Z = @ILT+17035(??0object_collection@mst@@QEAA@$$QEAV01@@Z)
         64   3F 00001D2A ??0object_collection@mst@@QEAA@AEBV01@@Z = @ILT+3365(??0object_collection@mst@@QEAA@AEBV01@@Z)
         65   40 00005551 ??0object_collection@mst@@QEAA@Vconst_iterator@01@0@Z = @ILT+17740(??0object_collection@mst@@QEAA@Vconst_iterator@01@0@Z)
         66   41 00003265 ??0object_collection@mst@@QEAA@Viterator@01@0@Z = @ILT+8800(??0object_collection@mst@@QEAA@Viterator@01@0@Z)
         67   42 00002B08 ??0object_collection@mst@@QEAA@XZ = @ILT+6915(??0object_collection@mst@@QEAA@XZ)
         68   43 00003C7E ??0object_collection@mst@@QEAA@_K@Z = @ILT+11385(??0object_collection@mst@@QEAA@_K@Z)
         69   44 00005C0E ??0object_collection@mst@@QEAA@_KAEBQEAVobject@1@@Z = @ILT+19465(??0object_collection@mst@@QEAA@_KAEBQEAVobject@1@@Z)
         70   45 00003198 ??0painter@mst@@QEAA@XZ = @ILT+8595(??0painter@mst@@QEAA@XZ)
         71   46 00003D73 ??0point_collection@mst@@QEAA@$$QEAV01@@Z = @ILT+11630(??0point_collection@mst@@QEAA@$$QEAV01@@Z)
         72   47 00006E38 ??0point_collection@mst@@QEAA@AEBV01@@Z = @ILT+24115(??0point_collection@mst@@QEAA@AEBV01@@Z)
         73   48 000051E1 ??0point_collection@mst@@QEAA@Vconst_iterator@01@0@Z = @ILT+16860(??0point_collection@mst@@QEAA@Vconst_iterator@01@0@Z)
         74   49 000074C3 ??0point_collection@mst@@QEAA@Viterator@01@0@Z = @ILT+25790(??0point_collection@mst@@QEAA@Viterator@01@0@Z)
         75   4A 0000275C ??0point_collection@mst@@QEAA@XZ = @ILT+5975(??0point_collection@mst@@QEAA@XZ)
         76   4B 00004395 ??0point_collection@mst@@QEAA@_K@Z = @ILT+13200(??0point_collection@mst@@QEAA@_K@Z)
         77   4C 00005F6A ??0point_collection@mst@@QEAA@_KAEBVpoint@1@@Z = @ILT+20325(??0point_collection@mst@@QEAA@_KAEBVpoint@1@@Z)
         78   4D 00006906 ??0reverse_iterator@int_collection@mst@@QEAA@AEBV012@@Z = @ILT+22785(??0reverse_iterator@int_collection@mst@@QEAA@AEBV012@@Z)
         79   4E 0000367A ??0reverse_iterator@int_collection@mst@@QEAA@XZ = @ILT+9845(??0reverse_iterator@int_collection@mst@@QEAA@XZ)
         80   4F 00004BE2 ??0reverse_iterator@mstring@mst@@QEAA@AEBV012@@Z = @ILT+15325(??0reverse_iterator@mstring@mst@@QEAA@AEBV012@@Z)
         81   50 0000171C ??0reverse_iterator@mstring@mst@@QEAA@XZ = @ILT+1815(??0reverse_iterator@mstring@mst@@QEAA@XZ)
         82   51 00004FD4 ??0reverse_iterator@object_collection@mst@@QEAA@AEBV012@@Z = @ILT+16335(??0reverse_iterator@object_collection@mst@@QEAA@AEBV012@@Z)
         83   52 0000223E ??0reverse_iterator@object_collection@mst@@QEAA@XZ = @ILT+4665(??0reverse_iterator@object_collection@mst@@QEAA@XZ)
         84   53 00003738 ??0reverse_iterator@point_collection@mst@@QEAA@AEBV012@@Z = @ILT+10035(??0reverse_iterator@point_collection@mst@@QEAA@AEBV012@@Z)
         85   54 00005BC8 ??0reverse_iterator@point_collection@mst@@QEAA@XZ = @ILT+19395(??0reverse_iterator@point_collection@mst@@QEAA@XZ)
         86   55 00003B25 ??0reverse_iterator@widget_collection@mst@@QEAA@AEBV012@@Z = @ILT+11040(??0reverse_iterator@widget_collection@mst@@QEAA@AEBV012@@Z)
         87   56 0000372E ??0reverse_iterator@widget_collection@mst@@QEAA@XZ = @ILT+10025(??0reverse_iterator@widget_collection@mst@@QEAA@XZ)
         88   57 0000101E ??0widget@mst@@QEAA@PEAV01@@Z = @ILT+25(??0widget@mst@@QEAA@PEAV01@@Z)
         89   58 000020C7 ??0widget@mst@@QEAA@PEAVwidget_private@1@PEAV01@@Z = @ILT+4290(??0widget@mst@@QEAA@PEAVwidget_private@1@PEAV01@@Z)
         90   59 00001839 ??0widget_collection@mst@@QEAA@$$QEAV01@@Z = @ILT+2100(??0widget_collection@mst@@QEAA@$$QEAV01@@Z)
         91   5A 00003DD2 ??0widget_collection@mst@@QEAA@AEBV01@@Z = @ILT+11725(??0widget_collection@mst@@QEAA@AEBV01@@Z)
         92   5B 00003FA3 ??0widget_collection@mst@@QEAA@Vconst_iterator@01@0@Z = @ILT+12190(??0widget_collection@mst@@QEAA@Vconst_iterator@01@0@Z)
         93   5C 0000195B ??0widget_collection@mst@@QEAA@Viterator@01@0@Z = @ILT+2390(??0widget_collection@mst@@QEAA@Viterator@01@0@Z)
         94   5D 00001D61 ??0widget_collection@mst@@QEAA@XZ = @ILT+3420(??0widget_collection@mst@@QEAA@XZ)
         95   5E 00004CDC ??0widget_collection@mst@@QEAA@_K@Z = @ILT+15575(??0widget_collection@mst@@QEAA@_K@Z)
         96   5F 000029FA ??0widget_collection@mst@@QEAA@_KAEBQEAVwidget@1@@Z = @ILT+6645(??0widget_collection@mst@@QEAA@_KAEBQEAVwidget@1@@Z)
         97   60 00007315 ??0window@mst@@QEAA@HHIII@Z = @ILT+25360(??0window@mst@@QEAA@HHIII@Z)
         98   61 00005A79 ??0window@mst@@QEAA@PEAVwidget@1@@Z = @ILT+19060(??0window@mst@@QEAA@PEAVwidget@1@@Z)
         99   62 0000512D ??1application@mst@@UEAA@XZ = @ILT+16680(??1application@mst@@UEAA@XZ)
        100   63 00002AAE ??1base@mst@@UEAA@XZ = @ILT+6825(??1base@mst@@UEAA@XZ)
        101   64 00004476 ??1button@mst@@UEAA@XZ = @ILT+13425(??1button@mst@@UEAA@XZ)
        102   65 00002671 ??1const_iterator@int_collection@mst@@UEAA@XZ = @ILT+5740(??1const_iterator@int_collection@mst@@UEAA@XZ)
        103   66 00001415 ??1const_iterator@mstring@mst@@UEAA@XZ = @ILT+1040(??1const_iterator@mstring@mst@@UEAA@XZ)
        104   67 00004D09 ??1const_iterator@object_collection@mst@@UEAA@XZ = @ILT+15620(??1const_iterator@object_collection@mst@@UEAA@XZ)
        105   68 00006B31 ??1const_iterator@point_collection@mst@@UEAA@XZ = @ILT+23340(??1const_iterator@point_collection@mst@@UEAA@XZ)
        106   69 000027FC ??1const_iterator@widget_collection@mst@@UEAA@XZ = @ILT+6135(??1const_iterator@widget_collection@mst@@UEAA@XZ)
        107   6A 0000674E ??1const_reverse_iterator@int_collection@mst@@UEAA@XZ = @ILT+22345(??1const_reverse_iterator@int_collection@mst@@UEAA@XZ)
        108   6B 00005209 ??1const_reverse_iterator@mstring@mst@@UEAA@XZ = @ILT+16900(??1const_reverse_iterator@mstring@mst@@UEAA@XZ)
        109   6C 00004A11 ??1const_reverse_iterator@object_collection@mst@@UEAA@XZ = @ILT+14860(??1const_reverse_iterator@object_collection@mst@@UEAA@XZ)
        110   6D 0000322E ??1const_reverse_iterator@point_collection@mst@@UEAA@XZ = @ILT+8745(??1const_reverse_iterator@point_collection@mst@@UEAA@XZ)
        111   6E 000039D6 ??1const_reverse_iterator@widget_collection@mst@@UEAA@XZ = @ILT+10705(??1const_reverse_iterator@widget_collection@mst@@UEAA@XZ)
        112   6F 000042D2 ??1handler_connection_base@mst@@UEAA@XZ = @ILT+13005(??1handler_connection_base@mst@@UEAA@XZ)
        113   70 00004B60 ??1image@mst@@UEAA@XZ = @ILT+15195(??1image@mst@@UEAA@XZ)
        114   71 00005B82 ??1int_collection@mst@@UEAA@XZ = @ILT+19325(??1int_collection@mst@@UEAA@XZ)
        115   72 00001406 ??1iterator@int_collection@mst@@UEAA@XZ = @ILT+1025(??1iterator@int_collection@mst@@UEAA@XZ)
        116   73 00004908 ??1iterator@mstring@mst@@UEAA@XZ = @ILT+14595(??1iterator@mstring@mst@@UEAA@XZ)
        117   74 00001695 ??1iterator@object_collection@mst@@UEAA@XZ = @ILT+1680(??1iterator@object_collection@mst@@UEAA@XZ)
        118   75 0000744B ??1iterator@point_collection@mst@@UEAA@XZ = @ILT+25670(??1iterator@point_collection@mst@@UEAA@XZ)
        119   76 00002EDC ??1iterator@widget_collection@mst@@UEAA@XZ = @ILT+7895(??1iterator@widget_collection@mst@@UEAA@XZ)
        120   77 000065FA ??1method_ptr_base@mst@@UEAA@XZ = @ILT+22005(??1method_ptr_base@mst@@UEAA@XZ)
        121   78 00003D0F ??1mstring@mst@@UEAA@XZ = @ILT+11530(??1mstring@mst@@UEAA@XZ)
        122   79 00002C7F ??1object@mst@@UEAA@XZ = @ILT+7290(??1object@mst@@UEAA@XZ)
        123   7A 00006A14 ??1object_collection@mst@@UEAA@XZ = @ILT+23055(??1object_collection@mst@@UEAA@XZ)
        124   7B 000055A6 ??1painter@mst@@UEAA@XZ = @ILT+17825(??1painter@mst@@UEAA@XZ)
        125   7C 00002374 ??1point_collection@mst@@UEAA@XZ = @ILT+4975(??1point_collection@mst@@UEAA@XZ)
        126   7D 00001933 ??1reverse_iterator@int_collection@mst@@UEAA@XZ = @ILT+2350(??1reverse_iterator@int_collection@mst@@UEAA@XZ)
        127   7E 0000554C ??1reverse_iterator@mstring@mst@@UEAA@XZ = @ILT+17735(??1reverse_iterator@mstring@mst@@UEAA@XZ)
        128   7F 000067AD ??1reverse_iterator@object_collection@mst@@UEAA@XZ = @ILT+22440(??1reverse_iterator@object_collection@mst@@UEAA@XZ)
        129   80 00002964 ??1reverse_iterator@point_collection@mst@@UEAA@XZ = @ILT+6495(??1reverse_iterator@point_collection@mst@@UEAA@XZ)
        130   81 0000148D ??1reverse_iterator@widget_collection@mst@@UEAA@XZ = @ILT+1160(??1reverse_iterator@widget_collection@mst@@UEAA@XZ)
        131   82 00003710 ??1widget@mst@@UEAA@XZ = @ILT+9995(??1widget@mst@@UEAA@XZ)
        132   83 00001BA4 ??1widget_collection@mst@@UEAA@XZ = @ILT+2975(??1widget_collection@mst@@UEAA@XZ)
        133   84 00004854 ??1window@mst@@UEAA@XZ = @ILT+14415(??1window@mst@@UEAA@XZ)
        134   85 00003F44 ??4color@mst@@QEAAAEAV01@$$QEAV01@@Z = @ILT+12095(??4color@mst@@QEAAAEAV01@$$QEAV01@@Z)
        135   86 000020AE ??4color@mst@@QEAAAEAV01@AEBV01@@Z = @ILT+4265(??4color@mst@@QEAAAEAV01@AEBV01@@Z)
        136   87 00003F6C ??4const_iterator@int_collection@mst@@QEAAAEAV012@AEBV012@@Z = @ILT+12135(??4const_iterator@int_collection@mst@@QEAAAEAV012@AEBV012@@Z)
        137   88 00006F73 ??4const_iterator@mstring@mst@@QEAAAEAV012@AEBV012@@Z = @ILT+24430(??4const_iterator@mstring@mst@@QEAAAEAV012@AEBV012@@Z)
        138   89 000030D0 ??4const_iterator@object_collection@mst@@QEAAAEAV012@AEBV012@@Z = @ILT+8395(??4const_iterator@object_collection@mst@@QEAAAEAV012@AEBV012@@Z)
        139   8A 00006564 ??4const_iterator@point_collection@mst@@QEAAAEAV012@AEBV012@@Z = @ILT+21855(??4const_iterator@point_collection@mst@@QEAAAEAV012@AEBV012@@Z)
        140   8B 0000624E ??4const_iterator@widget_collection@mst@@QEAAAEAV012@AEBV012@@Z = @ILT+21065(??4const_iterator@widget_collection@mst@@QEAAAEAV012@AEBV012@@Z)
        141   8C 00004B5B ??4const_reverse_iterator@int_collection@mst@@QEAAAEAV012@AEBV012@@Z = @ILT+15190(??4const_reverse_iterator@int_collection@mst@@QEAAAEAV012@AEBV012@@Z)
        142   8D 00005236 ??4const_reverse_iterator@mstring@mst@@QEAAAEAV012@AEBV012@@Z = @ILT+16945(??4const_reverse_iterator@mstring@mst@@QEAAAEAV012@AEBV012@@Z)
        143   8E 00001596 ??4const_reverse_iterator@object_collection@mst@@QEAAAEAV012@AEBV012@@Z = @ILT+1425(??4const_reverse_iterator@object_collection@mst@@QEAAAEAV012@AEBV012@@Z)
        144   8F 000071FD ??4const_reverse_iterator@point_collection@mst@@QEAAAEAV012@AEBV012@@Z = @ILT+25080(??4const_reverse_iterator@point_collection@mst@@QEAAAEAV012@AEBV012@@Z)
        145   90 0000748C ??4const_reverse_iterator@widget_collection@mst@@QEAAAEAV012@AEBV012@@Z = @ILT+25735(??4const_reverse_iterator@widget_collection@mst@@QEAAAEAV012@AEBV012@@Z)
        146   91 000011A9 ??4int_collection@mst@@QEAAAEAV01@$$QEAV01@@Z = @ILT+420(??4int_collection@mst@@QEAAAEAV01@$$QEAV01@@Z)
        147   92 00003DAF ??4int_collection@mst@@QEAAAEAV01@AEBV01@@Z = @ILT+11690(??4int_collection@mst@@QEAAAEAV01@AEBV01@@Z)
        148   93 00001276 ??4iterator@int_collection@mst@@QEAAAEAV012@AEBV012@@Z = @ILT+625(??4iterator@int_collection@mst@@QEAAAEAV012@AEBV012@@Z)
        149   94 00005FCE ??4iterator@mstring@mst@@QEAAAEAV012@AEBV012@@Z = @ILT+20425(??4iterator@mstring@mst@@QEAAAEAV012@AEBV012@@Z)
        150   95 000042A0 ??4iterator@object_collection@mst@@QEAAAEAV012@AEBV012@@Z = @ILT+12955(??4iterator@object_collection@mst@@QEAAAEAV012@AEBV012@@Z)
        151   96 00005BB4 ??4iterator@point_collection@mst@@QEAAAEAV012@AEBV012@@Z = @ILT+19375(??4iterator@point_collection@mst@@QEAAAEAV012@AEBV012@@Z)
        152   97 000047B4 ??4iterator@widget_collection@mst@@QEAAAEAV012@AEBV012@@Z = @ILT+14255(??4iterator@widget_collection@mst@@QEAAAEAV012@AEBV012@@Z)
        153   98 000065BE ??4method_addr@mst@@QEAAAEAV01@$$QEAV01@@Z = @ILT+21945(??4method_addr@mst@@QEAAAEAV01@$$QEAV01@@Z)
        154   99 00006C85 ??4method_addr@mst@@QEAAAEAV01@AEBV01@@Z = @ILT+23680(??4method_addr@mst@@QEAAAEAV01@AEBV01@@Z)
        155   9A 00005D85 ??4mstring@mst@@QEAAAEAV01@$$QEAV01@@Z = @ILT+19840(??4mstring@mst@@QEAAAEAV01@$$QEAV01@@Z)
        156   9B 00005943 ??4mstring@mst@@QEAAAEAV01@AEBV01@@Z = @ILT+18750(??4mstring@mst@@QEAAAEAV01@AEBV01@@Z)
        157   9C 000029CD ??4mstring@mst@@QEAAAEAV01@D@Z = @ILT+6600(??4mstring@mst@@QEAAAEAV01@D@Z)
        158   9D 00006CAD ??4mstring@mst@@QEAAAEAV01@PEBD@Z = @ILT+23720(??4mstring@mst@@QEAAAEAV01@PEBD@Z)
        159   9E 00005DE9 ??4object_collection@mst@@QEAAAEAV01@$$QEAV01@@Z = @ILT+19940(??4object_collection@mst@@QEAAAEAV01@$$QEAV01@@Z)
        160   9F 0000543E ??4object_collection@mst@@QEAAAEAV01@AEBV01@@Z = @ILT+17465(??4object_collection@mst@@QEAAAEAV01@AEBV01@@Z)
        161   A0 0000110E ??4point_collection@mst@@QEAAAEAV01@$$QEAV01@@Z = @ILT+265(??4point_collection@mst@@QEAAAEAV01@$$QEAV01@@Z)
        162   A1 00003FE4 ??4point_collection@mst@@QEAAAEAV01@AEBV01@@Z = @ILT+12255(??4point_collection@mst@@QEAAAEAV01@AEBV01@@Z)
        163   A2 00006947 ??4reverse_iterator@int_collection@mst@@QEAAAEAV012@AEBV012@@Z = @ILT+22850(??4reverse_iterator@int_collection@mst@@QEAAAEAV012@AEBV012@@Z)
        164   A3 00003472 ??4reverse_iterator@mstring@mst@@QEAAAEAV012@AEBV012@@Z = @ILT+9325(??4reverse_iterator@mstring@mst@@QEAAAEAV012@AEBV012@@Z)
        165   A4 00001DE3 ??4reverse_iterator@object_collection@mst@@QEAAAEAV012@AEBV012@@Z = @ILT+3550(??4reverse_iterator@object_collection@mst@@QEAAAEAV012@AEBV012@@Z)
        166   A5 00002DF6 ??4reverse_iterator@point_collection@mst@@QEAAAEAV012@AEBV012@@Z = @ILT+7665(??4reverse_iterator@point_collection@mst@@QEAAAEAV012@AEBV012@@Z)
        167   A6 00003B66 ??4reverse_iterator@widget_collection@mst@@QEAAAEAV012@AEBV012@@Z = @ILT+11105(??4reverse_iterator@widget_collection@mst@@QEAAAEAV012@AEBV012@@Z)
        168   A7 000049BC ??4widget_collection@mst@@QEAAAEAV01@$$QEAV01@@Z = @ILT+14775(??4widget_collection@mst@@QEAAAEAV01@$$QEAV01@@Z)
        169   A8 00006B45 ??4widget_collection@mst@@QEAAAEAV01@AEBV01@@Z = @ILT+23360(??4widget_collection@mst@@QEAAAEAV01@AEBV01@@Z)
        170   A9 00003B7F ??8const_iterator@int_collection@mst@@QEBA_NAEBV012@@Z = @ILT+11130(??8const_iterator@int_collection@mst@@QEBA_NAEBV012@@Z)
        171   AA 0000523B ??8const_iterator@mstring@mst@@QEBA_NAEBV012@@Z = @ILT+16950(??8const_iterator@mstring@mst@@QEBA_NAEBV012@@Z)
        172   AB 00002095 ??8const_iterator@object_collection@mst@@QEBA_NAEBV012@@Z = @ILT+4240(??8const_iterator@object_collection@mst@@QEBA_NAEBV012@@Z)
        173   AC 000037E2 ??8const_iterator@point_collection@mst@@QEBA_NAEBV012@@Z = @ILT+10205(??8const_iterator@point_collection@mst@@QEBA_NAEBV012@@Z)
        174   AD 00002824 ??8const_iterator@widget_collection@mst@@QEBA_NAEBV012@@Z = @ILT+6175(??8const_iterator@widget_collection@mst@@QEBA_NAEBV012@@Z)
        175   AE 000058A8 ??8const_reverse_iterator@int_collection@mst@@QEBA_NAEBV012@@Z = @ILT+18595(??8const_reverse_iterator@int_collection@mst@@QEBA_NAEBV012@@Z)
        176   AF 000015CD ??8const_reverse_iterator@mstring@mst@@QEBA_NAEBV012@@Z = @ILT+1480(??8const_reverse_iterator@mstring@mst@@QEBA_NAEBV012@@Z)
        177   B0 00006B4F ??8const_reverse_iterator@object_collection@mst@@QEBA_NAEBV012@@Z = @ILT+23370(??8const_reverse_iterator@object_collection@mst@@QEBA_NAEBV012@@Z)
        178   B1 0000222A ??8const_reverse_iterator@point_collection@mst@@QEBA_NAEBV012@@Z = @ILT+4645(??8const_reverse_iterator@point_collection@mst@@QEBA_NAEBV012@@Z)
        179   B2 0000109B ??8const_reverse_iterator@widget_collection@mst@@QEBA_NAEBV012@@Z = @ILT+150(??8const_reverse_iterator@widget_collection@mst@@QEBA_NAEBV012@@Z)
        180   B3 000052AE ??8int_collection@mst@@QEAA_NAEBV01@@Z = @ILT+17065(??8int_collection@mst@@QEAA_NAEBV01@@Z)
        181   B4 00002B3F ??8iterator@int_collection@mst@@QEBA_NAEBV012@@Z = @ILT+6970(??8iterator@int_collection@mst@@QEBA_NAEBV012@@Z)
        182   B5 000064E2 ??8iterator@mstring@mst@@QEBA_NAEBV012@@Z = @ILT+21725(??8iterator@mstring@mst@@QEBA_NAEBV012@@Z)
        183   B6 00002D9C ??8iterator@object_collection@mst@@QEBA_NAEBV012@@Z = @ILT+7575(??8iterator@object_collection@mst@@QEBA_NAEBV012@@Z)
        184   B7 00001D3E ??8iterator@point_collection@mst@@QEBA_NAEBV012@@Z = @ILT+3385(??8iterator@point_collection@mst@@QEBA_NAEBV012@@Z)
        185   B8 00006A1E ??8iterator@widget_collection@mst@@QEBA_NAEBV012@@Z = @ILT+23065(??8iterator@widget_collection@mst@@QEBA_NAEBV012@@Z)
        186   B9 0000687A ??8mstring@mst@@QEAA_NAEBV01@@Z = @ILT+22645(??8mstring@mst@@QEAA_NAEBV01@@Z)
        187   BA 0000327E ??8object_collection@mst@@QEAA_NAEBV01@@Z = @ILT+8825(??8object_collection@mst@@QEAA_NAEBV01@@Z)
        188   BB 00004642 ??8point_collection@mst@@QEAA_NAEBV01@@Z = @ILT+13885(??8point_collection@mst@@QEAA_NAEBV01@@Z)
        189   BC 00006B9F ??8reverse_iterator@int_collection@mst@@QEBA_NAEBV012@@Z = @ILT+23450(??8reverse_iterator@int_collection@mst@@QEBA_NAEBV012@@Z)
        190   BD 000050E7 ??8reverse_iterator@mstring@mst@@QEBA_NAEBV012@@Z = @ILT+16610(??8reverse_iterator@mstring@mst@@QEBA_NAEBV012@@Z)
        191   BE 00003B84 ??8reverse_iterator@object_collection@mst@@QEBA_NAEBV012@@Z = @ILT+11135(??8reverse_iterator@object_collection@mst@@QEBA_NAEBV012@@Z)
        192   BF 000074BE ??8reverse_iterator@point_collection@mst@@QEBA_NAEBV012@@Z = @ILT+25785(??8reverse_iterator@point_collection@mst@@QEBA_NAEBV012@@Z)
        193   C0 000068F7 ??8reverse_iterator@widget_collection@mst@@QEBA_NAEBV012@@Z = @ILT+22770(??8reverse_iterator@widget_collection@mst@@QEBA_NAEBV012@@Z)
        194   C1 0000191F ??8widget_collection@mst@@QEAA_NAEBV01@@Z = @ILT+2330(??8widget_collection@mst@@QEAA_NAEBV01@@Z)
        195   C2 000032A1 ??9const_iterator@int_collection@mst@@QEBA_NAEBV012@@Z = @ILT+8860(??9const_iterator@int_collection@mst@@QEBA_NAEBV012@@Z)
        196   C3 000053A8 ??9const_iterator@mstring@mst@@QEBA_NAEBV012@@Z = @ILT+17315(??9const_iterator@mstring@mst@@QEBA_NAEBV012@@Z)
        197   C4 00001703 ??9const_iterator@object_collection@mst@@QEBA_NAEBV012@@Z = @ILT+1790(??9const_iterator@object_collection@mst@@QEBA_NAEBV012@@Z)
        198   C5 00002D79 ??9const_iterator@point_collection@mst@@QEBA_NAEBV012@@Z = @ILT+7540(??9const_iterator@point_collection@mst@@QEBA_NAEBV012@@Z)
        199   C6 00003805 ??9const_iterator@widget_collection@mst@@QEBA_NAEBV012@@Z = @ILT+10240(??9const_iterator@widget_collection@mst@@QEBA_NAEBV012@@Z)
        200   C7 00004336 ??9const_reverse_iterator@int_collection@mst@@QEBA_NAEBV012@@Z = @ILT+13105(??9const_reverse_iterator@int_collection@mst@@QEBA_NAEBV012@@Z)
        201   C8 00001AFF ??9const_reverse_iterator@mstring@mst@@QEBA_NAEBV012@@Z = @ILT+2810(??9const_reverse_iterator@mstring@mst@@QEBA_NAEBV012@@Z)
        202   C9 0000626C ??9const_reverse_iterator@object_collection@mst@@QEBA_NAEBV012@@Z = @ILT+21095(??9const_reverse_iterator@object_collection@mst@@QEBA_NAEBV012@@Z)
        203   CA 00001C9E ??9const_reverse_iterator@point_collection@mst@@QEBA_NAEBV012@@Z = @ILT+3225(??9const_reverse_iterator@point_collection@mst@@QEBA_NAEBV012@@Z)
        204   CB 00006C4E ??9const_reverse_iterator@widget_collection@mst@@QEBA_NAEBV012@@Z = @ILT+23625(??9const_reverse_iterator@widget_collection@mst@@QEBA_NAEBV012@@Z)
        205   CC 00001460 ??9int_collection@mst@@QEAA_NAEBV01@@Z = @ILT+1115(??9int_collection@mst@@QEAA_NAEBV01@@Z)
        206   CD 0000255E ??9iterator@int_collection@mst@@QEBA_NAEBV012@@Z = @ILT+5465(??9iterator@int_collection@mst@@QEBA_NAEBV012@@Z)
        207   CE 00006F5F ??9iterator@mstring@mst@@QEBA_NAEBV012@@Z = @ILT+24410(??9iterator@mstring@mst@@QEBA_NAEBV012@@Z)
        208   CF 00001E1A ??9iterator@object_collection@mst@@QEBA_NAEBV012@@Z = @ILT+3605(??9iterator@object_collection@mst@@QEBA_NAEBV012@@Z)
        209   D0 00007211 ??9iterator@point_collection@mst@@QEBA_NAEBV012@@Z = @ILT+25100(??9iterator@point_collection@mst@@QEBA_NAEBV012@@Z)
        210   D1 00004CC3 ??9iterator@widget_collection@mst@@QEBA_NAEBV012@@Z = @ILT+15550(??9iterator@widget_collection@mst@@QEBA_NAEBV012@@Z)
        211   D2 000021E4 ??9mstring@mst@@QEAA_NAEBV01@@Z = @ILT+4575(??9mstring@mst@@QEAA_NAEBV01@@Z)
        212   D3 00004548 ??9object_collection@mst@@QEAA_NAEBV01@@Z = @ILT+13635(??9object_collection@mst@@QEAA_NAEBV01@@Z)
        213   D4 00006492 ??9point_collection@mst@@QEAA_NAEBV01@@Z = @ILT+21645(??9point_collection@mst@@QEAA_NAEBV01@@Z)
        214   D5 00002E37 ??9reverse_iterator@int_collection@mst@@QEBA_NAEBV012@@Z = @ILT+7730(??9reverse_iterator@int_collection@mst@@QEBA_NAEBV012@@Z)
        215   D6 0000108C ??9reverse_iterator@mstring@mst@@QEBA_NAEBV012@@Z = @ILT+135(??9reverse_iterator@mstring@mst@@QEBA_NAEBV012@@Z)
        216   D7 000063C5 ??9reverse_iterator@object_collection@mst@@QEBA_NAEBV012@@Z = @ILT+21440(??9reverse_iterator@object_collection@mst@@QEBA_NAEBV012@@Z)
        217   D8 00002982 ??9reverse_iterator@point_collection@mst@@QEBA_NAEBV012@@Z = @ILT+6525(??9reverse_iterator@point_collection@mst@@QEBA_NAEBV012@@Z)
        218   D9 0000421E ??9reverse_iterator@widget_collection@mst@@QEBA_NAEBV012@@Z = @ILT+12825(??9reverse_iterator@widget_collection@mst@@QEBA_NAEBV012@@Z)
        219   DA 00002A54 ??9widget_collection@mst@@QEAA_NAEBV01@@Z = @ILT+6735(??9widget_collection@mst@@QEAA_NAEBV01@@Z)
        220   DB 000027B1 ??Amstring@mst@@QEAAAEAD_K@Z = @ILT+6060(??Amstring@mst@@QEAAAEAD_K@Z)
        221   DC 00006B04 ??Amstring@mst@@QEBAAEBD_K@Z = @ILT+23295(??Amstring@mst@@QEBAAEBD_K@Z)
        222   DD 00001C8A ??Bmstring@mst@@QEAA?AV?$basic_string@DU?$char_traits@D@std@@V?$allocator@D@2@@std@@XZ = @ILT+3205(??Bmstring@mst@@QEAA?AV?$basic_string@DU?$char_traits@D@std@@V?$allocator@D@2@@std@@XZ)
        223   DE 00006B7C ??Cconst_iterator@int_collection@mst@@QEAAPEBHXZ = @ILT+23415(??Cconst_iterator@int_collection@mst@@QEAAPEBHXZ)
        224   DF 00003715 ??Cconst_iterator@mstring@mst@@QEAAPEBDXZ = @ILT+10000(??Cconst_iterator@mstring@mst@@QEAAPEBDXZ)
        225   E0 00003175 ??Cconst_iterator@object_collection@mst@@QEAAPEBQEAVobject@2@XZ = @ILT+8560(??Cconst_iterator@object_collection@mst@@QEAAPEBQEAVobject@2@XZ)
        226   E1 0000338C ??Cconst_iterator@point_collection@mst@@QEAAPEBVpoint@2@XZ = @ILT+9095(??Cconst_iterator@point_collection@mst@@QEAAPEBVpoint@2@XZ)
        227   E2 000072BB ??Cconst_iterator@widget_collection@mst@@QEAAPEBQEAVwidget@2@XZ = @ILT+25270(??Cconst_iterator@widget_collection@mst@@QEAAPEBQEAVwidget@2@XZ)
        228   E3 00005443 ??Cconst_reverse_iterator@int_collection@mst@@QEAAPEBHXZ = @ILT+17470(??Cconst_reverse_iterator@int_collection@mst@@QEAAPEBHXZ)
        229   E4 00002874 ??Cconst_reverse_iterator@mstring@mst@@QEAAPEBDXZ = @ILT+6255(??Cconst_reverse_iterator@mstring@mst@@QEAAPEBDXZ)
        230   E5 0000777F ??Cconst_reverse_iterator@object_collection@mst@@QEAAPEBQEAVobject@2@XZ = @ILT+26490(??Cconst_reverse_iterator@object_collection@mst@@QEAAPEBQEAVobject@2@XZ)
        231   E6 00006F19 ??Cconst_reverse_iterator@point_collection@mst@@QEAAPEBVpoint@2@XZ = @ILT+24340(??Cconst_reverse_iterator@point_collection@mst@@QEAAPEBVpoint@2@XZ)
        232   E7 0000474B ??Cconst_reverse_iterator@widget_collection@mst@@QEAAPEBQEAVwidget@2@XZ = @ILT+14150(??Cconst_reverse_iterator@widget_collection@mst@@QEAAPEBQEAVwidget@2@XZ)
        233   E8 00004EBC ??Citerator@int_collection@mst@@QEAAPEAHXZ = @ILT+16055(??Citerator@int_collection@mst@@QEAAPEAHXZ)
        234   E9 00002914 ??Citerator@mstring@mst@@QEAAPEADXZ = @ILT+6415(??Citerator@mstring@mst@@QEAAPEADXZ)
        235   EA 00005ABF ??Citerator@object_collection@mst@@QEAAPEAPEAVobject@2@XZ = @ILT+19130(??Citerator@object_collection@mst@@QEAAPEAPEAVobject@2@XZ)
        236   EB 0000123F ??Citerator@point_collection@mst@@QEAAPEAVpoint@2@XZ = @ILT+570(??Citerator@point_collection@mst@@QEAAPEAVpoint@2@XZ)
        237   EC 000055E7 ??Citerator@widget_collection@mst@@QEAAPEAPEAVwidget@2@XZ = @ILT+17890(??Citerator@widget_collection@mst@@QEAAPEAPEAVwidget@2@XZ)
        238   ED 00001DCA ??Creverse_iterator@int_collection@mst@@QEAAPEAHXZ = @ILT+3525(??Creverse_iterator@int_collection@mst@@QEAAPEAHXZ)
        239   EE 00004886 ??Creverse_iterator@mstring@mst@@QEAAPEADXZ = @ILT+14465(??Creverse_iterator@mstring@mst@@QEAAPEADXZ)
        240   EF 00005F42 ??Creverse_iterator@object_collection@mst@@QEAAPEAPEAVobject@2@XZ = @ILT+20285(??Creverse_iterator@object_collection@mst@@QEAAPEAPEAVobject@2@XZ)
        241   F0 00004561 ??Creverse_iterator@point_collection@mst@@QEAAPEAVpoint@2@XZ = @ILT+13660(??Creverse_iterator@point_collection@mst@@QEAAPEAVpoint@2@XZ)
        242   F1 000053C6 ??Creverse_iterator@widget_collection@mst@@QEAAPEAPEAVwidget@2@XZ = @ILT+17345(??Creverse_iterator@widget_collection@mst@@QEAAPEAPEAVwidget@2@XZ)
        243   F2 0000694C ??Dconst_iterator@int_collection@mst@@QEAAAEBHXZ = @ILT+22855(??Dconst_iterator@int_collection@mst@@QEAAAEBHXZ)
        244   F3 00001663 ??Dconst_iterator@mstring@mst@@QEAAAEBDXZ = @ILT+1630(??Dconst_iterator@mstring@mst@@QEAAAEBDXZ)
        245   F4 00004903 ??Dconst_iterator@object_collection@mst@@QEAAAEBQEAVobject@2@XZ = @ILT+14590(??Dconst_iterator@object_collection@mst@@QEAAAEBQEAVobject@2@XZ)
        246   F5 00002725 ??Dconst_iterator@point_collection@mst@@QEAAAEBVpoint@2@XZ = @ILT+5920(??Dconst_iterator@point_collection@mst@@QEAAAEBVpoint@2@XZ)
        247   F6 000061FE ??Dconst_iterator@widget_collection@mst@@QEAAAEBQEAVwidget@2@XZ = @ILT+20985(??Dconst_iterator@widget_collection@mst@@QEAAAEBQEAVwidget@2@XZ)
        248   F7 00005105 ??Dconst_reverse_iterator@int_collection@mst@@QEAAAEBHXZ = @ILT+16640(??Dconst_reverse_iterator@int_collection@mst@@QEAAAEBHXZ)
        249   F8 000042C8 ??Dconst_reverse_iterator@mstring@mst@@QEAAAEBDXZ = @ILT+12995(??Dconst_reverse_iterator@mstring@mst@@QEAAAEBDXZ)
        250   F9 00002310 ??Dconst_reverse_iterator@object_collection@mst@@QEAAAEBQEAVobject@2@XZ = @ILT+4875(??Dconst_reverse_iterator@object_collection@mst@@QEAAAEBQEAVobject@2@XZ)
        251   FA 00001E51 ??Dconst_reverse_iterator@point_collection@mst@@QEAAAEBVpoint@2@XZ = @ILT+3660(??Dconst_reverse_iterator@point_collection@mst@@QEAAAEBVpoint@2@XZ)
        252   FB 00003AEE ??Dconst_reverse_iterator@widget_collection@mst@@QEAAAEBQEAVwidget@2@XZ = @ILT+10985(??Dconst_reverse_iterator@widget_collection@mst@@QEAAAEBQEAVwidget@2@XZ)
        253   FC 00002289 ??Diterator@int_collection@mst@@QEAAAEAHXZ = @ILT+4740(??Diterator@int_collection@mst@@QEAAAEAHXZ)
        254   FD 00005722 ??Diterator@mstring@mst@@QEAAAEADXZ = @ILT+18205(??Diterator@mstring@mst@@QEAAAEADXZ)
        255   FE 00001730 ??Diterator@object_collection@mst@@QEAAAEAPEAVobject@2@XZ = @ILT+1835(??Diterator@object_collection@mst@@QEAAAEAPEAVobject@2@XZ)
        256   FF 0000627B ??Diterator@point_collection@mst@@QEAAAEAVpoint@2@XZ = @ILT+21110(??Diterator@point_collection@mst@@QEAAAEAVpoint@2@XZ)
        257  100 000067D5 ??Diterator@widget_collection@mst@@QEAAAEAPEAVwidget@2@XZ = @ILT+22480(??Diterator@widget_collection@mst@@QEAAAEAPEAVwidget@2@XZ)
        258  101 000035C6 ??Dreverse_iterator@int_collection@mst@@QEAAAEAHXZ = @ILT+9665(??Dreverse_iterator@int_collection@mst@@QEAAAEAHXZ)
        259  102 00001352 ??Dreverse_iterator@mstring@mst@@QEAAAEADXZ = @ILT+845(??Dreverse_iterator@mstring@mst@@QEAAAEADXZ)
        260  103 00006E74 ??Dreverse_iterator@object_collection@mst@@QEAAAEAPEAVobject@2@XZ = @ILT+24175(??Dreverse_iterator@object_collection@mst@@QEAAAEAPEAVobject@2@XZ)
        261  104 0000621C ??Dreverse_iterator@point_collection@mst@@QEAAAEAVpoint@2@XZ = @ILT+21015(??Dreverse_iterator@point_collection@mst@@QEAAAEAVpoint@2@XZ)
        262  105 00001203 ??Dreverse_iterator@widget_collection@mst@@QEAAAEAPEAVwidget@2@XZ = @ILT+510(??Dreverse_iterator@widget_collection@mst@@QEAAAEAPEAVwidget@2@XZ)
        263  106 00005F3D ??Econst_iterator@int_collection@mst@@QEAA?AV012@H@Z = @ILT+20280(??Econst_iterator@int_collection@mst@@QEAA?AV012@H@Z)
        264  107 00001163 ??Econst_iterator@int_collection@mst@@QEAAAEAV012@XZ = @ILT+350(??Econst_iterator@int_collection@mst@@QEAAAEAV012@XZ)
        265  108 00001C99 ??Econst_iterator@mstring@mst@@QEAA?AV012@H@Z = @ILT+3220(??Econst_iterator@mstring@mst@@QEAA?AV012@H@Z)
        266  109 00006FFF ??Econst_iterator@mstring@mst@@QEAAAEAV012@XZ = @ILT+24570(??Econst_iterator@mstring@mst@@QEAAAEAV012@XZ)
        267  10A 0000127B ??Econst_iterator@object_collection@mst@@QEAA?AV012@H@Z = @ILT+630(??Econst_iterator@object_collection@mst@@QEAA?AV012@H@Z)
        268  10B 000074A5 ??Econst_iterator@object_collection@mst@@QEAAAEAV012@XZ = @ILT+25760(??Econst_iterator@object_collection@mst@@QEAAAEAV012@XZ)
        269  10C 00006C8A ??Econst_iterator@point_collection@mst@@QEAA?AV012@H@Z = @ILT+23685(??Econst_iterator@point_collection@mst@@QEAA?AV012@H@Z)
        270  10D 00001F0A ??Econst_iterator@point_collection@mst@@QEAAAEAV012@XZ = @ILT+3845(??Econst_iterator@point_collection@mst@@QEAAAEAV012@XZ)
        271  10E 00001F5A ??Econst_iterator@widget_collection@mst@@QEAA?AV012@H@Z = @ILT+3925(??Econst_iterator@widget_collection@mst@@QEAA?AV012@H@Z)
        272  10F 00005C2C ??Econst_iterator@widget_collection@mst@@QEAAAEAV012@XZ = @ILT+19495(??Econst_iterator@widget_collection@mst@@QEAAAEAV012@XZ)
        273  110 00001BDB ??Econst_reverse_iterator@int_collection@mst@@QEAA?AV012@H@Z = @ILT+3030(??Econst_reverse_iterator@int_collection@mst@@QEAA?AV012@H@Z)
        274  111 00006B27 ??Econst_reverse_iterator@int_collection@mst@@QEAAAEAV012@XZ = @ILT+23330(??Econst_reverse_iterator@int_collection@mst@@QEAAAEAV012@XZ)
        275  112 0000654B ??Econst_reverse_iterator@mstring@mst@@QEAA?AV012@H@Z = @ILT+21830(??Econst_reverse_iterator@mstring@mst@@QEAA?AV012@H@Z)
        276  113 00005A1F ??Econst_reverse_iterator@mstring@mst@@QEAAAEAV012@XZ = @ILT+18970(??Econst_reverse_iterator@mstring@mst@@QEAAAEAV012@XZ)
        277  114 0000341D ??Econst_reverse_iterator@object_collection@mst@@QEAA?AV012@H@Z = @ILT+9240(??Econst_reverse_iterator@object_collection@mst@@QEAA?AV012@H@Z)
        278  115 00001F19 ??Econst_reverse_iterator@object_collection@mst@@QEAAAEAV012@XZ = @ILT+3860(??Econst_reverse_iterator@object_collection@mst@@QEAAAEAV012@XZ)
        279  116 00006131 ??Econst_reverse_iterator@point_collection@mst@@QEAA?AV012@H@Z = @ILT+20780(??Econst_reverse_iterator@point_collection@mst@@QEAA?AV012@H@Z)
        280  117 0000412E ??Econst_reverse_iterator@point_collection@mst@@QEAAAEAV012@XZ = @ILT+12585(??Econst_reverse_iterator@point_collection@mst@@QEAAAEAV012@XZ)
        281  118 00006F96 ??Econst_reverse_iterator@widget_collection@mst@@QEAA?AV012@H@Z = @ILT+24465(??Econst_reverse_iterator@widget_collection@mst@@QEAA?AV012@H@Z)
        282  119 000014A1 ??Econst_reverse_iterator@widget_collection@mst@@QEAAAEAV012@XZ = @ILT+1180(??Econst_reverse_iterator@widget_collection@mst@@QEAAAEAV012@XZ)
        283  11A 00001EA6 ??Eiterator@int_collection@mst@@QEAA?AV012@H@Z = @ILT+3745(??Eiterator@int_collection@mst@@QEAA?AV012@H@Z)
        284  11B 000048AE ??Eiterator@int_collection@mst@@QEAAAEAV012@XZ = @ILT+14505(??Eiterator@int_collection@mst@@QEAAAEAV012@XZ)
        285  11C 00006B59 ??Eiterator@mstring@mst@@QEAA?AV012@H@Z = @ILT+23380(??Eiterator@mstring@mst@@QEAA?AV012@H@Z)
        286  11D 00004273 ??Eiterator@mstring@mst@@QEAAAEAV012@XZ = @ILT+12910(??Eiterator@mstring@mst@@QEAAAEAV012@XZ)
        287  11E 00003E9A ??Eiterator@object_collection@mst@@QEAA?AV012@H@Z = @ILT+11925(??Eiterator@object_collection@mst@@QEAA?AV012@H@Z)
        288  11F 00005F60 ??Eiterator@object_collection@mst@@QEAAAEAV012@XZ = @ILT+20315(??Eiterator@object_collection@mst@@QEAAAEAV012@XZ)
        289  120 000029D7 ??Eiterator@point_collection@mst@@QEAA?AV012@H@Z = @ILT+6610(??Eiterator@point_collection@mst@@QEAA?AV012@H@Z)
        290  121 00004845 ??Eiterator@point_collection@mst@@QEAAAEAV012@XZ = @ILT+14400(??Eiterator@point_collection@mst@@QEAAAEAV012@XZ)
        291  122 00007522 ??Eiterator@widget_collection@mst@@QEAA?AV012@H@Z = @ILT+25885(??Eiterator@widget_collection@mst@@QEAA?AV012@H@Z)
        292  123 0000254A ??Eiterator@widget_collection@mst@@QEAAAEAV012@XZ = @ILT+5445(??Eiterator@widget_collection@mst@@QEAAAEAV012@XZ)
        293  124 00003698 ??Ereverse_iterator@int_collection@mst@@QEAA?AV012@H@Z = @ILT+9875(??Ereverse_iterator@int_collection@mst@@QEAA?AV012@H@Z)
        294  125 000014B5 ??Ereverse_iterator@int_collection@mst@@QEAAAEAV012@XZ = @ILT+1200(??Ereverse_iterator@int_collection@mst@@QEAAAEAV012@XZ)
        295  126 0000215D ??Ereverse_iterator@mstring@mst@@QEAA?AV012@H@Z = @ILT+4440(??Ereverse_iterator@mstring@mst@@QEAA?AV012@H@Z)
        296  127 0000606E ??Ereverse_iterator@mstring@mst@@QEAAAEAV012@XZ = @ILT+20585(??Ereverse_iterator@mstring@mst@@QEAAAEAV012@XZ)
        297  128 00002B85 ??Ereverse_iterator@object_collection@mst@@QEAA?AV012@H@Z = @ILT+7040(??Ereverse_iterator@object_collection@mst@@QEAA?AV012@H@Z)
        298  129 00002275 ??Ereverse_iterator@object_collection@mst@@QEAAAEAV012@XZ = @ILT+4720(??Ereverse_iterator@object_collection@mst@@QEAAAEAV012@XZ)
        299  12A 000049FD ??Ereverse_iterator@point_collection@mst@@QEAA?AV012@H@Z = @ILT+14840(??Ereverse_iterator@point_collection@mst@@QEAA?AV012@H@Z)
        300  12B 00005060 ??Ereverse_iterator@point_collection@mst@@QEAAAEAV012@XZ = @ILT+16475(??Ereverse_iterator@point_collection@mst@@QEAAAEAV012@XZ)
        301  12C 0000326A ??Ereverse_iterator@widget_collection@mst@@QEAA?AV012@H@Z = @ILT+8805(??Ereverse_iterator@widget_collection@mst@@QEAA?AV012@H@Z)
        302  12D 00004EF8 ??Ereverse_iterator@widget_collection@mst@@QEAAAEAV012@XZ = @ILT+16115(??Ereverse_iterator@widget_collection@mst@@QEAAAEAV012@XZ)
        303  12E 00006910 ??Fconst_iterator@int_collection@mst@@QEAA?AV012@H@Z = @ILT+22795(??Fconst_iterator@int_collection@mst@@QEAA?AV012@H@Z)
        304  12F 00005155 ??Fconst_iterator@int_collection@mst@@QEAAAEAV012@XZ = @ILT+16720(??Fconst_iterator@int_collection@mst@@QEAAAEAV012@XZ)
        305  130 00001D4D ??Fconst_iterator@mstring@mst@@QEAA?AV012@H@Z = @ILT+3400(??Fconst_iterator@mstring@mst@@QEAA?AV012@H@Z)
        306  131 00001C3A ??Fconst_iterator@mstring@mst@@QEAAAEAV012@XZ = @ILT+3125(??Fconst_iterator@mstring@mst@@QEAAAEAV012@XZ)
        307  132 00005B78 ??Fconst_iterator@object_collection@mst@@QEAA?AV012@H@Z = @ILT+19315(??Fconst_iterator@object_collection@mst@@QEAA?AV012@H@Z)
        308  133 00006A05 ??Fconst_iterator@object_collection@mst@@QEAAAEAV012@XZ = @ILT+23040(??Fconst_iterator@object_collection@mst@@QEAAAEAV012@XZ)
        309  134 00005D8A ??Fconst_iterator@point_collection@mst@@QEAA?AV012@H@Z = @ILT+19845(??Fconst_iterator@point_collection@mst@@QEAA?AV012@H@Z)
        310  135 000075F9 ??Fconst_iterator@point_collection@mst@@QEAAAEAV012@XZ = @ILT+26100(??Fconst_iterator@point_collection@mst@@QEAAAEAV012@XZ)
        311  136 00003620 ??Fconst_iterator@widget_collection@mst@@QEAA?AV012@H@Z = @ILT+9755(??Fconst_iterator@widget_collection@mst@@QEAA?AV012@H@Z)
        312  137 00003C6A ??Fconst_iterator@widget_collection@mst@@QEAAAEAV012@XZ = @ILT+11365(??Fconst_iterator@widget_collection@mst@@QEAAAEAV012@XZ)
        313  138 00003099 ??Fconst_reverse_iterator@int_collection@mst@@QEAA?AV012@H@Z = @ILT+8340(??Fconst_reverse_iterator@int_collection@mst@@QEAA?AV012@H@Z)
        314  139 00006C8F ??Fconst_reverse_iterator@int_collection@mst@@QEAAAEAV012@XZ = @ILT+23690(??Fconst_reverse_iterator@int_collection@mst@@QEAAAEAV012@XZ)
        315  13A 000046FB ??Fconst_reverse_iterator@mstring@mst@@QEAA?AV012@H@Z = @ILT+14070(??Fconst_reverse_iterator@mstring@mst@@QEAA?AV012@H@Z)
        316  13B 00004C14 ??Fconst_reverse_iterator@mstring@mst@@QEAAAEAV012@XZ = @ILT+15375(??Fconst_reverse_iterator@mstring@mst@@QEAAAEAV012@XZ)
        317  13C 000044BC ??Fconst_reverse_iterator@object_collection@mst@@QEAA?AV012@H@Z = @ILT+13495(??Fconst_reverse_iterator@object_collection@mst@@QEAA?AV012@H@Z)
        318  13D 00003C92 ??Fconst_reverse_iterator@object_collection@mst@@QEAAAEAV012@XZ = @ILT+11405(??Fconst_reverse_iterator@object_collection@mst@@QEAAAEAV012@XZ)
        319  13E 000061B8 ??Fconst_reverse_iterator@point_collection@mst@@QEAA?AV012@H@Z = @ILT+20915(??Fconst_reverse_iterator@point_collection@mst@@QEAA?AV012@H@Z)
        320  13F 00007586 ??Fconst_reverse_iterator@point_collection@mst@@QEAAAEAV012@XZ = @ILT+25985(??Fconst_reverse_iterator@point_collection@mst@@QEAAAEAV012@XZ)
        321  140 00005001 ??Fconst_reverse_iterator@widget_collection@mst@@QEAA?AV012@H@Z = @ILT+16380(??Fconst_reverse_iterator@widget_collection@mst@@QEAA?AV012@H@Z)
        322  141 00001028 ??Fconst_reverse_iterator@widget_collection@mst@@QEAAAEAV012@XZ = @ILT+35(??Fconst_reverse_iterator@widget_collection@mst@@QEAAAEAV012@XZ)
        323  142 00002338 ??Fiterator@int_collection@mst@@QEAA?AV012@H@Z = @ILT+4915(??Fiterator@int_collection@mst@@QEAA?AV012@H@Z)
        324  143 00004C05 ??Fiterator@int_collection@mst@@QEAAAEAV012@XZ = @ILT+15360(??Fiterator@int_collection@mst@@QEAAAEAV012@XZ)
        325  144 000034E5 ??Fiterator@mstring@mst@@QEAA?AV012@H@Z = @ILT+9440(??Fiterator@mstring@mst@@QEAA?AV012@H@Z)
        326  145 00001681 ??Fiterator@mstring@mst@@QEAAAEAV012@XZ = @ILT+1660(??Fiterator@mstring@mst@@QEAAAEAV012@XZ)
        327  146 00007342 ??Fiterator@object_collection@mst@@QEAA?AV012@H@Z = @ILT+25405(??Fiterator@object_collection@mst@@QEAA?AV012@H@Z)
        328  147 000066AE ??Fiterator@object_collection@mst@@QEAAAEAV012@XZ = @ILT+22185(??Fiterator@object_collection@mst@@QEAAAEAV012@XZ)
        329  148 00005470 ??Fiterator@point_collection@mst@@QEAA?AV012@H@Z = @ILT+17515(??Fiterator@point_collection@mst@@QEAA?AV012@H@Z)
        330  149 00003332 ??Fiterator@point_collection@mst@@QEAAAEAV012@XZ = @ILT+9005(??Fiterator@point_collection@mst@@QEAAAEAV012@XZ)
        331  14A 000013BB ??Fiterator@widget_collection@mst@@QEAA?AV012@H@Z = @ILT+950(??Fiterator@widget_collection@mst@@QEAA?AV012@H@Z)
        332  14B 00002E1E ??Fiterator@widget_collection@mst@@QEAAAEAV012@XZ = @ILT+7705(??Fiterator@widget_collection@mst@@QEAAAEAV012@XZ)
        333  14C 00006E4C ??Freverse_iterator@int_collection@mst@@QEAA?AV012@H@Z = @ILT+24135(??Freverse_iterator@int_collection@mst@@QEAA?AV012@H@Z)
        334  14D 0000531C ??Freverse_iterator@int_collection@mst@@QEAAAEAV012@XZ = @ILT+17175(??Freverse_iterator@int_collection@mst@@QEAAAEAV012@XZ)
        335  14E 00007171 ??Freverse_iterator@mstring@mst@@QEAA?AV012@H@Z = @ILT+24940(??Freverse_iterator@mstring@mst@@QEAA?AV012@H@Z)
        336  14F 0000450C ??Freverse_iterator@mstring@mst@@QEAAAEAV012@XZ = @ILT+13575(??Freverse_iterator@mstring@mst@@QEAAAEAV012@XZ)
        337  150 0000437C ??Freverse_iterator@object_collection@mst@@QEAA?AV012@H@Z = @ILT+13175(??Freverse_iterator@object_collection@mst@@QEAA?AV012@H@Z)
        338  151 00002A68 ??Freverse_iterator@object_collection@mst@@QEAAAEAV012@XZ = @ILT+6755(??Freverse_iterator@object_collection@mst@@QEAAAEAV012@XZ)
        339  152 00001CE9 ??Freverse_iterator@point_collection@mst@@QEAA?AV012@H@Z = @ILT+3300(??Freverse_iterator@point_collection@mst@@QEAA?AV012@H@Z)
        340  153 000068D9 ??Freverse_iterator@point_collection@mst@@QEAAAEAV012@XZ = @ILT+22740(??Freverse_iterator@point_collection@mst@@QEAAAEAV012@XZ)
        341  154 00002F2C ??Freverse_iterator@widget_collection@mst@@QEAA?AV012@H@Z = @ILT+7975(??Freverse_iterator@widget_collection@mst@@QEAA?AV012@H@Z)
        342  155 00005D3F ??Freverse_iterator@widget_collection@mst@@QEAAAEAV012@XZ = @ILT+19770(??Freverse_iterator@widget_collection@mst@@QEAAAEAV012@XZ)
        343  156 000022AC ??Gconst_iterator@int_collection@mst@@QEBA?AV012@H@Z = @ILT+4775(??Gconst_iterator@int_collection@mst@@QEBA?AV012@H@Z)
        344  157 0000484F ??Gconst_iterator@mstring@mst@@QEBA?AV012@H@Z = @ILT+14410(??Gconst_iterator@mstring@mst@@QEBA?AV012@H@Z)
        345  158 00006410 ??Gconst_iterator@object_collection@mst@@QEBA?AV012@H@Z = @ILT+21515(??Gconst_iterator@object_collection@mst@@QEBA?AV012@H@Z)
        346  159 00002DC9 ??Gconst_iterator@point_collection@mst@@QEBA?AV012@H@Z = @ILT+7620(??Gconst_iterator@point_collection@mst@@QEBA?AV012@H@Z)
        347  15A 0000358A ??Gconst_iterator@widget_collection@mst@@QEBA?AV012@H@Z = @ILT+9605(??Gconst_iterator@widget_collection@mst@@QEBA?AV012@H@Z)
        348  15B 000033B4 ??Gconst_reverse_iterator@int_collection@mst@@QEBA?AV012@H@Z = @ILT+9135(??Gconst_reverse_iterator@int_collection@mst@@QEBA?AV012@H@Z)
        349  15C 00003C51 ??Gconst_reverse_iterator@mstring@mst@@QEBA?AV012@H@Z = @ILT+11340(??Gconst_reverse_iterator@mstring@mst@@QEBA?AV012@H@Z)
        350  15D 000055BF ??Gconst_reverse_iterator@object_collection@mst@@QEBA?AV012@H@Z = @ILT+17850(??Gconst_reverse_iterator@object_collection@mst@@QEBA?AV012@H@Z)
        351  15E 000067FD ??Gconst_reverse_iterator@point_collection@mst@@QEBA?AV012@H@Z = @ILT+22520(??Gconst_reverse_iterator@point_collection@mst@@QEBA?AV012@H@Z)
        352  15F 00006A82 ??Gconst_reverse_iterator@widget_collection@mst@@QEBA?AV012@H@Z = @ILT+23165(??Gconst_reverse_iterator@widget_collection@mst@@QEBA?AV012@H@Z)
        353  160 000045C0 ??Giterator@int_collection@mst@@QEBA?AV012@H@Z = @ILT+13755(??Giterator@int_collection@mst@@QEBA?AV012@H@Z)
        354  161 00007257 ??Giterator@mstring@mst@@QEBA?AV012@H@Z = @ILT+25170(??Giterator@mstring@mst@@QEBA?AV012@H@Z)
        355  162 000041E2 ??Giterator@object_collection@mst@@QEBA?AV012@H@Z = @ILT+12765(??Giterator@object_collection@mst@@QEBA?AV012@H@Z)
        356  163 0000187A ??Giterator@point_collection@mst@@QEBA?AV012@H@Z = @ILT+2165(??Giterator@point_collection@mst@@QEBA?AV012@H@Z)
        357  164 0000164F ??Giterator@widget_collection@mst@@QEBA?AV012@H@Z = @ILT+1610(??Giterator@widget_collection@mst@@QEBA?AV012@H@Z)
        358  165 00004BCE ??Greverse_iterator@int_collection@mst@@QEBA?AV012@H@Z = @ILT+15305(??Greverse_iterator@int_collection@mst@@QEBA?AV012@H@Z)
        359  166 00003C97 ??Greverse_iterator@mstring@mst@@QEBA?AV012@H@Z = @ILT+11410(??Greverse_iterator@mstring@mst@@QEBA?AV012@H@Z)
        360  167 00007293 ??Greverse_iterator@object_collection@mst@@QEBA?AV012@H@Z = @ILT+25230(??Greverse_iterator@object_collection@mst@@QEBA?AV012@H@Z)
        361  168 00003733 ??Greverse_iterator@point_collection@mst@@QEBA?AV012@H@Z = @ILT+10030(??Greverse_iterator@point_collection@mst@@QEBA?AV012@H@Z)
        362  169 000026DF ??Greverse_iterator@widget_collection@mst@@QEBA?AV012@H@Z = @ILT+5850(??Greverse_iterator@widget_collection@mst@@QEBA?AV012@H@Z)
        363  16A 00003328 ??Hconst_iterator@int_collection@mst@@QEBA?AV012@H@Z = @ILT+8995(??Hconst_iterator@int_collection@mst@@QEBA?AV012@H@Z)
        364  16B 00003157 ??Hconst_iterator@mstring@mst@@QEBA?AV012@H@Z = @ILT+8530(??Hconst_iterator@mstring@mst@@QEBA?AV012@H@Z)
        365  16C 00002180 ??Hconst_iterator@object_collection@mst@@QEBA?AV012@H@Z = @ILT+4475(??Hconst_iterator@object_collection@mst@@QEBA?AV012@H@Z)
        366  16D 000036F7 ??Hconst_iterator@point_collection@mst@@QEBA?AV012@H@Z = @ILT+9970(??Hconst_iterator@point_collection@mst@@QEBA?AV012@H@Z)
        367  16E 00004AD9 ??Hconst_iterator@widget_collection@mst@@QEBA?AV012@H@Z = @ILT+15060(??Hconst_iterator@widget_collection@mst@@QEBA?AV012@H@Z)
        368  16F 00001E88 ??Hconst_reverse_iterator@int_collection@mst@@QEBA?AV012@H@Z = @ILT+3715(??Hconst_reverse_iterator@int_collection@mst@@QEBA?AV012@H@Z)
        369  170 00002C48 ??Hconst_reverse_iterator@mstring@mst@@QEBA?AV012@H@Z = @ILT+7235(??Hconst_reverse_iterator@mstring@mst@@QEBA?AV012@H@Z)
        370  171 0000464C ??Hconst_reverse_iterator@object_collection@mst@@QEBA?AV012@H@Z = @ILT+13895(??Hconst_reverse_iterator@object_collection@mst@@QEBA?AV012@H@Z)
        371  172 00002EFA ??Hconst_reverse_iterator@point_collection@mst@@QEBA?AV012@H@Z = @ILT+7925(??Hconst_reverse_iterator@point_collection@mst@@QEBA?AV012@H@Z)
        372  173 00002199 ??Hconst_reverse_iterator@widget_collection@mst@@QEBA?AV012@H@Z = @ILT+4500(??Hconst_reverse_iterator@widget_collection@mst@@QEBA?AV012@H@Z)
        373  174 00002400 ??Hiterator@int_collection@mst@@QEBA?AV012@H@Z = @ILT+5115(??Hiterator@int_collection@mst@@QEBA?AV012@H@Z)
        374  175 00007338 ??Hiterator@mstring@mst@@QEBA?AV012@H@Z = @ILT+25395(??Hiterator@mstring@mst@@QEBA?AV012@H@Z)
        375  176 00004660 ??Hiterator@object_collection@mst@@QEBA?AV012@H@Z = @ILT+13915(??Hiterator@object_collection@mst@@QEBA?AV012@H@Z)
        376  177 0000590C ??Hiterator@point_collection@mst@@QEBA?AV012@H@Z = @ILT+18695(??Hiterator@point_collection@mst@@QEBA?AV012@H@Z)
        377  178 0000678F ??Hiterator@widget_collection@mst@@QEBA?AV012@H@Z = @ILT+22410(??Hiterator@widget_collection@mst@@QEBA?AV012@H@Z)
        378  179 00005B19 ??Hmst@@YA?AVmstring@0@$$QEAV10@0@Z = @ILT+19220(??Hmst@@YA?AVmstring@0@$$QEAV10@0@Z)
        379  17A 00001A0F ??Hmst@@YA?AVmstring@0@$$QEAV10@AEBV10@@Z = @ILT+2570(??Hmst@@YA?AVmstring@0@$$QEAV10@AEBV10@@Z)
        380  17B 00005907 ??Hmst@@YA?AVmstring@0@$$QEAV10@D@Z = @ILT+18690(??Hmst@@YA?AVmstring@0@$$QEAV10@D@Z)
        381  17C 000059A2 ??Hmst@@YA?AVmstring@0@$$QEAV10@PEBD@Z = @ILT+18845(??Hmst@@YA?AVmstring@0@$$QEAV10@PEBD@Z)
        382  17D 00001B18 ??Hmst@@YA?AVmstring@0@AEBV10@$$QEAV10@@Z = @ILT+2835(??Hmst@@YA?AVmstring@0@AEBV10@$$QEAV10@@Z)
        383  17E 00007194 ??Hmst@@YA?AVmstring@0@AEBV10@0@Z = @ILT+24975(??Hmst@@YA?AVmstring@0@AEBV10@0@Z)
        384  17F 000070EF ??Hmst@@YA?AVmstring@0@AEBV10@D@Z = @ILT+24810(??Hmst@@YA?AVmstring@0@AEBV10@D@Z)
        385  180 00003283 ??Hmst@@YA?AVmstring@0@AEBV10@PEBD@Z = @ILT+8830(??Hmst@@YA?AVmstring@0@AEBV10@PEBD@Z)
        386  181 00003503 ??Hmst@@YA?AVmstring@0@D$$QEAV10@@Z = @ILT+9470(??Hmst@@YA?AVmstring@0@D$$QEAV10@@Z)
        387  182 00001AF5 ??Hmst@@YA?AVmstring@0@DAEBV10@@Z = @ILT+2800(??Hmst@@YA?AVmstring@0@DAEBV10@@Z)
        388  183 00005DD5 ??Hmst@@YA?AVmstring@0@PEBD$$QEAV10@@Z = @ILT+19920(??Hmst@@YA?AVmstring@0@PEBD$$QEAV10@@Z)
        389  184 00004B29 ??Hmst@@YA?AVmstring@0@PEBDAEBV10@@Z = @ILT+15140(??Hmst@@YA?AVmstring@0@PEBDAEBV10@@Z)
        390  185 00007383 ??Hreverse_iterator@int_collection@mst@@QEBA?AV012@H@Z = @ILT+25470(??Hreverse_iterator@int_collection@mst@@QEBA?AV012@H@Z)
        391  186 000055FB ??Hreverse_iterator@mstring@mst@@QEBA?AV012@H@Z = @ILT+17910(??Hreverse_iterator@mstring@mst@@QEBA?AV012@H@Z)
        392  187 00005006 ??Hreverse_iterator@object_collection@mst@@QEBA?AV012@H@Z = @ILT+16385(??Hreverse_iterator@object_collection@mst@@QEBA?AV012@H@Z)
        393  188 00006AB4 ??Hreverse_iterator@point_collection@mst@@QEBA?AV012@H@Z = @ILT+23215(??Hreverse_iterator@point_collection@mst@@QEBA?AV012@H@Z)
        394  189 000076A3 ??Hreverse_iterator@widget_collection@mst@@QEBA?AV012@H@Z = @ILT+26270(??Hreverse_iterator@widget_collection@mst@@QEBA?AV012@H@Z)
        395  18A 00005961 ??Yconst_iterator@int_collection@mst@@QEAAAEAV012@H@Z = @ILT+18780(??Yconst_iterator@int_collection@mst@@QEAAAEAV012@H@Z)
        396  18B 000028C4 ??Yconst_iterator@mstring@mst@@QEAAAEAV012@H@Z = @ILT+6335(??Yconst_iterator@mstring@mst@@QEAAAEAV012@H@Z)
        397  18C 000033C8 ??Yconst_iterator@object_collection@mst@@QEAAAEAV012@H@Z = @ILT+9155(??Yconst_iterator@object_collection@mst@@QEAAAEAV012@H@Z)
        398  18D 00005B37 ??Yconst_iterator@point_collection@mst@@QEAAAEAV012@H@Z = @ILT+19250(??Yconst_iterator@point_collection@mst@@QEAAAEAV012@H@Z)
        399  18E 000054BB ??Yconst_iterator@widget_collection@mst@@QEAAAEAV012@H@Z = @ILT+17590(??Yconst_iterator@widget_collection@mst@@QEAAAEAV012@H@Z)
        400  18F 000048EF ??Yconst_reverse_iterator@int_collection@mst@@QEAAAEAV012@H@Z = @ILT+14570(??Yconst_reverse_iterator@int_collection@mst@@QEAAAEAV012@H@Z)
        401  190 00003DAA ??Yconst_reverse_iterator@mstring@mst@@QEAAAEAV012@H@Z = @ILT+11685(??Yconst_reverse_iterator@mstring@mst@@QEAAAEAV012@H@Z)
        402  191 000038C8 ??Yconst_reverse_iterator@object_collection@mst@@QEAAAEAV012@H@Z = @ILT+10435(??Yconst_reverse_iterator@object_collection@mst@@QEAAAEAV012@H@Z)
        403  192 000011EF ??Yconst_reverse_iterator@point_collection@mst@@QEAAAEAV012@H@Z = @ILT+490(??Yconst_reverse_iterator@point_collection@mst@@QEAAAEAV012@H@Z)
        404  193 0000613B ??Yconst_reverse_iterator@widget_collection@mst@@QEAAAEAV012@H@Z = @ILT+20790(??Yconst_reverse_iterator@widget_collection@mst@@QEAAAEAV012@H@Z)
        405  194 000024AA ??Yiterator@int_collection@mst@@QEAAAEAV012@H@Z = @ILT+5285(??Yiterator@int_collection@mst@@QEAAAEAV012@H@Z)
        406  195 00005957 ??Yiterator@mstring@mst@@QEAAAEAV012@H@Z = @ILT+18770(??Yiterator@mstring@mst@@QEAAAEAV012@H@Z)
        407  196 00004EF3 ??Yiterator@object_collection@mst@@QEAAAEAV012@H@Z = @ILT+16110(??Yiterator@object_collection@mst@@QEAAAEAV012@H@Z)
        408  197 00006D7A ??Yiterator@point_collection@mst@@QEAAAEAV012@H@Z = @ILT+23925(??Yiterator@point_collection@mst@@QEAAAEAV012@H@Z)
        409  198 00006082 ??Yiterator@widget_collection@mst@@QEAAAEAV012@H@Z = @ILT+20605(??Yiterator@widget_collection@mst@@QEAAAEAV012@H@Z)
        410  199 0000708B ??Ymstring@mst@@QEAAAEAV01@AEBV01@@Z = @ILT+24710(??Ymstring@mst@@QEAAAEAV01@AEBV01@@Z)
        411  19A 00005B05 ??Ymstring@mst@@QEAAAEAV01@D@Z = @ILT+19200(??Ymstring@mst@@QEAAAEAV01@D@Z)
        412  19B 00005759 ??Ymstring@mst@@QEAAAEAV01@PEBD@Z = @ILT+18260(??Ymstring@mst@@QEAAAEAV01@PEBD@Z)
        413  19C 000018B6 ??Yreverse_iterator@int_collection@mst@@QEAAAEAV012@H@Z = @ILT+2225(??Yreverse_iterator@int_collection@mst@@QEAAAEAV012@H@Z)
        414  19D 00005786 ??Yreverse_iterator@mstring@mst@@QEAAAEAV012@H@Z = @ILT+18305(??Yreverse_iterator@mstring@mst@@QEAAAEAV012@H@Z)
        415  19E 0000551F ??Yreverse_iterator@object_collection@mst@@QEAAAEAV012@H@Z = @ILT+17690(??Yreverse_iterator@object_collection@mst@@QEAAAEAV012@H@Z)
        416  19F 0000525E ??Yreverse_iterator@point_collection@mst@@QEAAAEAV012@H@Z = @ILT+16985(??Yreverse_iterator@point_collection@mst@@QEAAAEAV012@H@Z)
        417  1A0 0000660E ??Yreverse_iterator@widget_collection@mst@@QEAAAEAV012@H@Z = @ILT+22025(??Yreverse_iterator@widget_collection@mst@@QEAAAEAV012@H@Z)
        418  1A1 00003F30 ??Zconst_iterator@int_collection@mst@@QEAAAEAV012@H@Z = @ILT+12075(??Zconst_iterator@int_collection@mst@@QEAAAEAV012@H@Z)
        419  1A2 00005A74 ??Zconst_iterator@mstring@mst@@QEAAAEAV012@H@Z = @ILT+19055(??Zconst_iterator@mstring@mst@@QEAAAEAV012@H@Z)
        420  1A3 00003350 ??Zconst_iterator@object_collection@mst@@QEAAAEAV012@H@Z = @ILT+9035(??Zconst_iterator@object_collection@mst@@QEAAAEAV012@H@Z)
        421  1A4 00005718 ??Zconst_iterator@point_collection@mst@@QEAAAEAV012@H@Z = @ILT+18195(??Zconst_iterator@point_collection@mst@@QEAAAEAV012@H@Z)
        422  1A5 00002022 ??Zconst_iterator@widget_collection@mst@@QEAAAEAV012@H@Z = @ILT+4125(??Zconst_iterator@widget_collection@mst@@QEAAAEAV012@H@Z)
        423  1A6 000059B6 ??Zconst_reverse_iterator@int_collection@mst@@QEAAAEAV012@H@Z = @ILT+18865(??Zconst_reverse_iterator@int_collection@mst@@QEAAAEAV012@H@Z)
        424  1A7 00004683 ??Zconst_reverse_iterator@mstring@mst@@QEAAAEAV012@H@Z = @ILT+13950(??Zconst_reverse_iterator@mstring@mst@@QEAAAEAV012@H@Z)
        425  1A8 00003F21 ??Zconst_reverse_iterator@object_collection@mst@@QEAAAEAV012@H@Z = @ILT+12060(??Zconst_reverse_iterator@object_collection@mst@@QEAAAEAV012@H@Z)
        426  1A9 00006645 ??Zconst_reverse_iterator@point_collection@mst@@QEAAAEAV012@H@Z = @ILT+22080(??Zconst_reverse_iterator@point_collection@mst@@QEAAAEAV012@H@Z)
        427  1AA 0000128A ??Zconst_reverse_iterator@widget_collection@mst@@QEAAAEAV012@H@Z = @ILT+645(??Zconst_reverse_iterator@widget_collection@mst@@QEAAAEAV012@H@Z)
        428  1AB 00006541 ??Ziterator@int_collection@mst@@QEAAAEAV012@H@Z = @ILT+21820(??Ziterator@int_collection@mst@@QEAAAEAV012@H@Z)
        429  1AC 00003A80 ??Ziterator@mstring@mst@@QEAAAEAV012@H@Z = @ILT+10875(??Ziterator@mstring@mst@@QEAAAEAV012@H@Z)
        430  1AD 00004DB3 ??Ziterator@object_collection@mst@@QEAAAEAV012@H@Z = @ILT+15790(??Ziterator@object_collection@mst@@QEAAAEAV012@H@Z)
        431  1AE 00005489 ??Ziterator@point_collection@mst@@QEAAAEAV012@H@Z = @ILT+17540(??Ziterator@point_collection@mst@@QEAAAEAV012@H@Z)
        432  1AF 000030F8 ??Ziterator@widget_collection@mst@@QEAAAEAV012@H@Z = @ILT+8435(??Ziterator@widget_collection@mst@@QEAAAEAV012@H@Z)
        433  1B0 00003751 ??Zreverse_iterator@int_collection@mst@@QEAAAEAV012@H@Z = @ILT+10060(??Zreverse_iterator@int_collection@mst@@QEAAAEAV012@H@Z)
        434  1B1 0000362F ??Zreverse_iterator@mstring@mst@@QEAAAEAV012@H@Z = @ILT+9770(??Zreverse_iterator@mstring@mst@@QEAAAEAV012@H@Z)
        435  1B2 00006BD6 ??Zreverse_iterator@object_collection@mst@@QEAAAEAV012@H@Z = @ILT+23505(??Zreverse_iterator@object_collection@mst@@QEAAAEAV012@H@Z)
        436  1B3 00001C53 ??Zreverse_iterator@point_collection@mst@@QEAAAEAV012@H@Z = @ILT+3150(??Zreverse_iterator@point_collection@mst@@QEAAAEAV012@H@Z)
        437  1B4 00001CC1 ??Zreverse_iterator@widget_collection@mst@@QEAAAEAV012@H@Z = @ILT+3260(??Zreverse_iterator@widget_collection@mst@@QEAAAEAV012@H@Z)
        438  1B5 00122510 ??_7application@mst@@6B@ = ??_7application@mst@@6B@ (const mst::application::`vftable')
        439  1B6 0012C0C8 ??_7base@mst@@6B@ = ??_7base@mst@@6B@ (const mst::base::`vftable')
        440  1B7 001229B8 ??_7button@mst@@6B@ = ??_7button@mst@@6B@ (const mst::button::`vftable')
        441  1B8 00136528 ??_7const_iterator@int_collection@mst@@6B@ = ??_7const_iterator@int_collection@mst@@6B@ (const mst::int_collection::const_iterator::`vftable')
        442  1B9 0012E8B8 ??_7const_iterator@mstring@mst@@6B@ = ??_7const_iterator@mstring@mst@@6B@ (const mst::mstring::const_iterator::`vftable')
        443  1BA 001340A8 ??_7const_iterator@object_collection@mst@@6B@ = ??_7const_iterator@object_collection@mst@@6B@ (const mst::object_collection::const_iterator::`vftable')
        444  1BB 001389F0 ??_7const_iterator@point_collection@mst@@6B@ = ??_7const_iterator@point_collection@mst@@6B@ (const mst::point_collection::const_iterator::`vftable')
        445  1BC 00131808 ??_7const_iterator@widget_collection@mst@@6B@ = ??_7const_iterator@widget_collection@mst@@6B@ (const mst::widget_collection::const_iterator::`vftable')
        446  1BD 00136558 ??_7const_reverse_iterator@int_collection@mst@@6B@ = ??_7const_reverse_iterator@int_collection@mst@@6B@ (const mst::int_collection::const_reverse_iterator::`vftable')
        447  1BE 0012E8E8 ??_7const_reverse_iterator@mstring@mst@@6B@ = ??_7const_reverse_iterator@mstring@mst@@6B@ (const mst::mstring::const_reverse_iterator::`vftable')
        448  1BF 001340D8 ??_7const_reverse_iterator@object_collection@mst@@6B@ = ??_7const_reverse_iterator@object_collection@mst@@6B@ (const mst::object_collection::const_reverse_iterator::`vftable')
        449  1C0 00138A20 ??_7const_reverse_iterator@point_collection@mst@@6B@ = ??_7const_reverse_iterator@point_collection@mst@@6B@ (const mst::point_collection::const_reverse_iterator::`vftable')
        450  1C1 00131838 ??_7const_reverse_iterator@widget_collection@mst@@6B@ = ??_7const_reverse_iterator@widget_collection@mst@@6B@ (const mst::widget_collection::const_reverse_iterator::`vftable')
        451  1C2 0012BD08 ??_7handler_connection_base@mst@@6B@ = ??_7handler_connection_base@mst@@6B@ (const mst::handler_connection_base::`vftable')
        452  1C3 00129B88 ??_7image@mst@@6B@ = ??_7image@mst@@6B@ (const mst::image::`vftable')
        453  1C4 00136570 ??_7int_collection@mst@@6B@ = ??_7int_collection@mst@@6B@ (const mst::int_collection::`vftable')
        454  1C5 00136510 ??_7iterator@int_collection@mst@@6B@ = ??_7iterator@int_collection@mst@@6B@ (const mst::int_collection::iterator::`vftable')
        455  1C6 0012E8A0 ??_7iterator@mstring@mst@@6B@ = ??_7iterator@mstring@mst@@6B@ (const mst::mstring::iterator::`vftable')
        456  1C7 00134090 ??_7iterator@object_collection@mst@@6B@ = ??_7iterator@object_collection@mst@@6B@ (const mst::object_collection::iterator::`vftable')
        457  1C8 001389D8 ??_7iterator@point_collection@mst@@6B@ = ??_7iterator@point_collection@mst@@6B@ (const mst::point_collection::iterator::`vftable')
        458  1C9 001317F0 ??_7iterator@widget_collection@mst@@6B@ = ??_7iterator@widget_collection@mst@@6B@ (const mst::widget_collection::iterator::`vftable')
        459  1CA 0011EAC8 ??_7method_ptr_base@mst@@6B@ = ??_7method_ptr_base@mst@@6B@ (const mst::method_ptr_base::`vftable')
        460  1CB 0012E900 ??_7mstring@mst@@6B@ = ??_7mstring@mst@@6B@ (const mst::mstring::`vftable')
        461  1CC 00122DB8 ??_7object@mst@@6B@ = ??_7object@mst@@6B@ (const mst::object::`vftable')
        462  1CD 001340F0 ??_7object_collection@mst@@6B@ = ??_7object_collection@mst@@6B@ (const mst::object_collection::`vftable')
        463  1CE 00123DF0 ??_7painter@mst@@6B@ = ??_7painter@mst@@6B@ (const mst::painter::`vftable')
        464  1CF 00138A38 ??_7point_collection@mst@@6B@ = ??_7point_collection@mst@@6B@ (const mst::point_collection::`vftable')
        465  1D0 00136540 ??_7reverse_iterator@int_collection@mst@@6B@ = ??_7reverse_iterator@int_collection@mst@@6B@ (const mst::int_collection::reverse_iterator::`vftable')
        466  1D1 0012E8D0 ??_7reverse_iterator@mstring@mst@@6B@ = ??_7reverse_iterator@mstring@mst@@6B@ (const mst::mstring::reverse_iterator::`vftable')
        467  1D2 001340C0 ??_7reverse_iterator@object_collection@mst@@6B@ = ??_7reverse_iterator@object_collection@mst@@6B@ (const mst::object_collection::reverse_iterator::`vftable')
        468  1D3 00138A08 ??_7reverse_iterator@point_collection@mst@@6B@ = ??_7reverse_iterator@point_collection@mst@@6B@ (const mst::point_collection::reverse_iterator::`vftable')
        469  1D4 00131820 ??_7reverse_iterator@widget_collection@mst@@6B@ = ??_7reverse_iterator@widget_collection@mst@@6B@ (const mst::widget_collection::reverse_iterator::`vftable')
        470  1D5 00126578 ??_7widget@mst@@6B@ = ??_7widget@mst@@6B@ (const mst::widget::`vftable')
        471  1D6 00131850 ??_7widget_collection@mst@@6B@ = ??_7widget_collection@mst@@6B@ (const mst::widget_collection::`vftable')
        472  1D7 0012AA78 ??_7window@mst@@6B@ = ??_7window@mst@@6B@ (const mst::window::`vftable')
        473  1D8 00003EC2 ??_Fbutton@mst@@QEAAXXZ = @ILT+11965(??_Fbutton@mst@@QEAAXXZ)
        474  1D9 00003292 ??_Fcolor@mst@@QEAAXXZ = @ILT+8845(??_Fcolor@mst@@QEAAXXZ)
        475  1DA 0000505B ??_Fimage@mst@@QEAAXXZ = @ILT+16470(??_Fimage@mst@@QEAAXXZ)
        476  1DB 00004048 ??_Fobject@mst@@QEAAXXZ = @ILT+12355(??_Fobject@mst@@QEAAXXZ)
        477  1DC 00004D5E ??_Fwidget@mst@@QEAAXXZ = @ILT+15705(??_Fwidget@mst@@QEAAXXZ)
        478  1DD 00006D9D ??_Fwindow@mst@@QEAAXXZ = @ILT+23960(??_Fwindow@mst@@QEAAXXZ)
        479  1DE 00006AFA ?_add_handler_connection@widget@mst@@QEAAXPEAVhandler_connection_base@2@@Z = @ILT+23285(?_add_handler_connection@widget@mst@@QEAAXPEAVhandler_connection_base@2@@Z)
        480  1DF 00006834 ?_method_name@method_ptr_base@mst@@AEAAPEBDXZ = @ILT+22575(?_method_name@method_ptr_base@mst@@AEAAPEBDXZ)
        481  1E0 00006CF3 ?_set_method@mst@@YAXPEAXPEBD@Z = @ILT+23790(?_set_method@mst@@YAXPEAXPEBD@Z)
        482  1E1 00001D39 ?_src_method_name@handler_connection_base@mst@@AEAAPEBDXZ = @ILT+3380(?_src_method_name@handler_connection_base@mst@@AEAAPEBDXZ)
        483  1E2 00005051 ?_text@button@mst@@AEAAPEBDXZ = @ILT+16460(?_text@button@mst@@AEAAPEBDXZ)
        484  1E3 0000472D ?a@color@mst@@QEBAEXZ = @ILT+14120(?a@color@mst@@QEBAEXZ)
        485  1E4 00003A7B ?add_caller@widget@mst@@QEAAXPEAVhandler_connection_base@2@@Z = @ILT+10870(?add_caller@widget@mst@@QEAAXPEAVhandler_connection_base@2@@Z)
        486  1E5 000016CC ?add_child@widget@mst@@UEAAXPEAV12@@Z = @ILT+1735(?add_child@widget@mst@@UEAAXPEAV12@@Z)
        487  1E6 00006AB9 ?add_child@window@mst@@UEAAXPEAVwidget@2@@Z = @ILT+23220(?add_child@window@mst@@UEAAXPEAVwidget@2@@Z)
        488  1E7 0000483B ?append@mstring@mst@@QEAAAEAV12@AEBV12@@Z = @ILT+14390(?append@mstring@mst@@QEAAAEAV12@AEBV12@@Z)
        489  1E8 0000196F ?append@mstring@mst@@QEAAAEAV12@AEBV12@_K1@Z = @ILT+2410(?append@mstring@mst@@QEAAAEAV12@AEBV12@_K1@Z)
        490  1E9 00003D96 ?append@mstring@mst@@QEAAAEAV12@PEBD@Z = @ILT+11665(?append@mstring@mst@@QEAAAEAV12@PEBD@Z)
        491  1EA 000020BD ?append@mstring@mst@@QEAAAEAV12@PEBD_K@Z = @ILT+4280(?append@mstring@mst@@QEAAAEAV12@PEBD_K@Z)
        492  1EB 00004223 ?append@mstring@mst@@QEAAAEAV12@Vconst_iterator@12@0@Z = @ILT+12830(?append@mstring@mst@@QEAAAEAV12@Vconst_iterator@12@0@Z)
        493  1EC 0000147E ?append@mstring@mst@@QEAAAEAV12@Viterator@12@0@Z = @ILT+1145(?append@mstring@mst@@QEAAAEAV12@Viterator@12@0@Z)
        494  1ED 00006104 ?append@mstring@mst@@QEAAAEAV12@_KD@Z = @ILT+20735(?append@mstring@mst@@QEAAAEAV12@_KD@Z)
        495  1EE 000035E4 ?assign@int_collection@mst@@QEAAAEAV12@Vconst_iterator@12@0@Z = @ILT+9695(?assign@int_collection@mst@@QEAAAEAV12@Vconst_iterator@12@0@Z)
        496  1EF 000041BF ?assign@int_collection@mst@@QEAAAEAV12@Viterator@12@0@Z = @ILT+12730(?assign@int_collection@mst@@QEAAAEAV12@Viterator@12@0@Z)
        497  1F0 000059B1 ?assign@int_collection@mst@@QEAAAEAV12@_KAEBH@Z = @ILT+18860(?assign@int_collection@mst@@QEAAAEAV12@_KAEBH@Z)
        498  1F1 0000213F ?assign@mstring@mst@@QEAAAEAV12@$$QEAV12@@Z = @ILT+4410(?assign@mstring@mst@@QEAAAEAV12@$$QEAV12@@Z)
        499  1F2 000015FA ?assign@mstring@mst@@QEAAAEAV12@AEBV12@@Z = @ILT+1525(?assign@mstring@mst@@QEAAAEAV12@AEBV12@@Z)
        500  1F3 00004CCD ?assign@mstring@mst@@QEAAAEAV12@AEBV12@_K1@Z = @ILT+15560(?assign@mstring@mst@@QEAAAEAV12@AEBV12@_K1@Z)
        501  1F4 00003508 ?assign@mstring@mst@@QEAAAEAV12@PEBD@Z = @ILT+9475(?assign@mstring@mst@@QEAAAEAV12@PEBD@Z)
        502  1F5 0000173A ?assign@mstring@mst@@QEAAAEAV12@PEBD_K@Z = @ILT+1845(?assign@mstring@mst@@QEAAAEAV12@PEBD_K@Z)
        503  1F6 000037B5 ?assign@mstring@mst@@QEAAAEAV12@Vconst_iterator@12@0@Z = @ILT+10160(?assign@mstring@mst@@QEAAAEAV12@Vconst_iterator@12@0@Z)
        504  1F7 00002AFE ?assign@mstring@mst@@QEAAAEAV12@Viterator@12@0@Z = @ILT+6905(?assign@mstring@mst@@QEAAAEAV12@Viterator@12@0@Z)
        505  1F8 00005673 ?assign@mstring@mst@@QEAAAEAV12@_KAEBD@Z = @ILT+18030(?assign@mstring@mst@@QEAAAEAV12@_KAEBD@Z)
        506  1F9 00004403 ?assign@mstring@mst@@QEAAAEAV12@_KD@Z = @ILT+13310(?assign@mstring@mst@@QEAAAEAV12@_KD@Z)
        507  1FA 00006884 ?assign@object_collection@mst@@QEAAAEAV12@Vconst_iterator@12@0@Z = @ILT+22655(?assign@object_collection@mst@@QEAAAEAV12@Vconst_iterator@12@0@Z)
        508  1FB 00001852 ?assign@object_collection@mst@@QEAAAEAV12@Viterator@12@0@Z = @ILT+2125(?assign@object_collection@mst@@QEAAAEAV12@Viterator@12@0@Z)
        509  1FC 00003B52 ?assign@object_collection@mst@@QEAAAEAV12@_KAEBQEAVobject@2@@Z = @ILT+11085(?assign@object_collection@mst@@QEAAAEAV12@_KAEBQEAVobject@2@@Z)
        510  1FD 000014F1 ?assign@point_collection@mst@@QEAAAEAV12@Vconst_iterator@12@0@Z = @ILT+1260(?assign@point_collection@mst@@QEAAAEAV12@Vconst_iterator@12@0@Z)
        511  1FE 00001D84 ?assign@point_collection@mst@@QEAAAEAV12@Viterator@12@0@Z = @ILT+3455(?assign@point_collection@mst@@QEAAAEAV12@Viterator@12@0@Z)
        512  1FF 00004ADE ?assign@point_collection@mst@@QEAAAEAV12@_KAEBVpoint@2@@Z = @ILT+15065(?assign@point_collection@mst@@QEAAAEAV12@_KAEBVpoint@2@@Z)
        513  200 00006B54 ?assign@widget_collection@mst@@QEAAAEAV12@Vconst_iterator@12@0@Z = @ILT+23375(?assign@widget_collection@mst@@QEAAAEAV12@Vconst_iterator@12@0@Z)
        514  201 00006366 ?assign@widget_collection@mst@@QEAAAEAV12@Viterator@12@0@Z = @ILT+21345(?assign@widget_collection@mst@@QEAAAEAV12@Viterator@12@0@Z)
        515  202 00004A57 ?assign@widget_collection@mst@@QEAAAEAV12@_KAEBQEAVwidget@2@@Z = @ILT+14930(?assign@widget_collection@mst@@QEAAAEAV12@_KAEBQEAVwidget@2@@Z)
        516  203 00005F29 ?at@mstring@mst@@QEAAAEAD_K@Z = @ILT+20260(?at@mstring@mst@@QEAAAEAD_K@Z)
        517  204 000053F3 ?at@mstring@mst@@QEBAAEBD_K@Z = @ILT+17390(?at@mstring@mst@@QEBAAEBD_K@Z)
        518  205 000060F5 ?b@color@mst@@QEBAEXZ = @ILT+20720(?b@color@mst@@QEBAEXZ)
        519  206 000056E1 ?back@int_collection@mst@@QEAAAEAHXZ = @ILT+18140(?back@int_collection@mst@@QEAAAEAHXZ)
        520  207 00001CA3 ?back@int_collection@mst@@QEBAAEBHXZ = @ILT+3230(?back@int_collection@mst@@QEBAAEBHXZ)
        521  208 000073A6 ?back@mstring@mst@@QEAAAEADXZ = @ILT+25505(?back@mstring@mst@@QEAAAEADXZ)
        522  209 00003F76 ?back@mstring@mst@@QEBAAEBDXZ = @ILT+12145(?back@mstring@mst@@QEBAAEBDXZ)
        523  20A 00001EBA ?back@object_collection@mst@@QEAAAEAPEAVobject@2@XZ = @ILT+3765(?back@object_collection@mst@@QEAAAEAPEAVobject@2@XZ)
        524  20B 00003391 ?back@object_collection@mst@@QEBAAEBQEAVobject@2@XZ = @ILT+9100(?back@object_collection@mst@@QEBAAEBQEAVobject@2@XZ)
        525  20C 000067A8 ?back@point_collection@mst@@QEAAAEAVpoint@2@XZ = @ILT+22435(?back@point_collection@mst@@QEAAAEAVpoint@2@XZ)
        526  20D 0000603C ?back@point_collection@mst@@QEBAAEBVpoint@2@XZ = @ILT+20535(?back@point_collection@mst@@QEBAAEBVpoint@2@XZ)
        527  20E 00003AAD ?back@widget_collection@mst@@QEAAAEAPEAVwidget@2@XZ = @ILT+10920(?back@widget_collection@mst@@QEAAAEAPEAVwidget@2@XZ)
        528  20F 00004EB2 ?back@widget_collection@mst@@QEBAAEBQEAVwidget@2@XZ = @ILT+16045(?back@widget_collection@mst@@QEBAAEBQEAVwidget@2@XZ)
        529  210 00002C0C ?begin@int_collection@mst@@QEAA?AViterator@12@XZ = @ILT+7175(?begin@int_collection@mst@@QEAA?AViterator@12@XZ)
        530  211 0000534E ?begin@int_collection@mst@@QEBA?AVconst_iterator@12@XZ = @ILT+17225(?begin@int_collection@mst@@QEBA?AVconst_iterator@12@XZ)
        531  212 00003FF3 ?begin@mstring@mst@@QEAA?AViterator@12@XZ = @ILT+12270(?begin@mstring@mst@@QEAA?AViterator@12@XZ)
        532  213 00005DA8 ?begin@mstring@mst@@QEBA?AVconst_iterator@12@XZ = @ILT+19875(?begin@mstring@mst@@QEBA?AVconst_iterator@12@XZ)
        533  214 00003670 ?begin@object_collection@mst@@QEAA?AViterator@12@XZ = @ILT+9835(?begin@object_collection@mst@@QEAA?AViterator@12@XZ)
        534  215 000042A5 ?begin@object_collection@mst@@QEBA?AVconst_iterator@12@XZ = @ILT+12960(?begin@object_collection@mst@@QEBA?AVconst_iterator@12@XZ)
        535  216 000011A4 ?begin@point_collection@mst@@QEAA?AViterator@12@XZ = @ILT+415(?begin@point_collection@mst@@QEAA?AViterator@12@XZ)
        536  217 0000610E ?begin@point_collection@mst@@QEBA?AVconst_iterator@12@XZ = @ILT+20745(?begin@point_collection@mst@@QEBA?AVconst_iterator@12@XZ)
        537  218 00005B00 ?begin@widget_collection@mst@@QEAA?AViterator@12@XZ = @ILT+19195(?begin@widget_collection@mst@@QEAA?AViterator@12@XZ)
        538  219 00006122 ?begin@widget_collection@mst@@QEBA?AVconst_iterator@12@XZ = @ILT+20765(?begin@widget_collection@mst@@QEBA?AVconst_iterator@12@XZ)
        539  21A 0018405C ?black@color@mst@@2V12@B = ?black@color@mst@@2V12@B (public: static class mst::color const mst::color::black)
        540  21B 0018404C ?blue@color@mst@@2V12@B = ?blue@color@mst@@2V12@B (public: static class mst::color const mst::color::blue)
        541  21C 00005790 ?bounds@widget@mst@@QEAA?AVrect@2@XZ = @ILT+18315(?bounds@widget@mst@@QEAA?AVrect@2@XZ)
        542  21D 00005D17 ?c_str@mstring@mst@@QEBAPEBDXZ = @ILT+19730(?c_str@mstring@mst@@QEBAPEBDXZ)
        543  21E 00003AB2 ?call_handlers_for@widget@mst@@QEAAXAEBV?$basic_string@DU?$char_traits@D@std@@V?$allocator@D@2@@std@@PEAX1111@Z = @ILT+10925(?call_handlers_for@widget@mst@@QEAAXAEBV?$basic_string@DU?$char_traits@D@std@@V?$allocator@D@2@@std@@PEAX1111@Z)
        544  21F 00006D48 ?cbegin@int_collection@mst@@QEBA?AVconst_iterator@12@XZ = @ILT+23875(?cbegin@int_collection@mst@@QEBA?AVconst_iterator@12@XZ)
        545  220 00006668 ?cbegin@mstring@mst@@QEBA?AVconst_iterator@12@XZ = @ILT+22115(?cbegin@mstring@mst@@QEBA?AVconst_iterator@12@XZ)
        546  221 0000574A ?cbegin@object_collection@mst@@QEBA?AVconst_iterator@12@XZ = @ILT+18245(?cbegin@object_collection@mst@@QEBA?AVconst_iterator@12@XZ)
        547  222 000050BF ?cbegin@point_collection@mst@@QEBA?AVconst_iterator@12@XZ = @ILT+16570(?cbegin@point_collection@mst@@QEBA?AVconst_iterator@12@XZ)
        548  223 00005231 ?cbegin@widget_collection@mst@@QEBA?AVconst_iterator@12@XZ = @ILT+16940(?cbegin@widget_collection@mst@@QEBA?AVconst_iterator@12@XZ)
        549  224 000014B0 ?cend@int_collection@mst@@QEBA?AVconst_iterator@12@XZ = @ILT+1195(?cend@int_collection@mst@@QEBA?AVconst_iterator@12@XZ)
        550  225 00001E33 ?cend@mstring@mst@@QEBA?AVconst_iterator@12@XZ = @ILT+3630(?cend@mstring@mst@@QEBA?AVconst_iterator@12@XZ)
        551  226 00004C0F ?cend@object_collection@mst@@QEBA?AVconst_iterator@12@XZ = @ILT+15370(?cend@object_collection@mst@@QEBA?AVconst_iterator@12@XZ)
        552  227 00006311 ?cend@point_collection@mst@@QEBA?AVconst_iterator@12@XZ = @ILT+21260(?cend@point_collection@mst@@QEBA?AVconst_iterator@12@XZ)
        553  228 000024FA ?cend@widget_collection@mst@@QEBA?AVconst_iterator@12@XZ = @ILT+5365(?cend@widget_collection@mst@@QEBA?AVconst_iterator@12@XZ)
        554  229 000064CE ?children@widget@mst@@QEAAAEAVwidget_collection@2@XZ = @ILT+21705(?children@widget@mst@@QEAAAEAVwidget_collection@2@XZ)
        555  22A 00001591 ?children@window@mst@@QEBAAEBVwidget_collection@2@XZ = @ILT+1420(?children@window@mst@@QEBAAEBVwidget_collection@2@XZ)
        556  22B 0000378D ?clear@int_collection@mst@@QEAAXXZ = @ILT+10120(?clear@int_collection@mst@@QEAAXXZ)
        557  22C 000067E4 ?clear@mstring@mst@@QEAAXXZ = @ILT+22495(?clear@mstring@mst@@QEAAXXZ)
        558  22D 00005D80 ?clear@object_collection@mst@@QEAAXXZ = @ILT+19835(?clear@object_collection@mst@@QEAAXXZ)
        559  22E 000042D7 ?clear@point_collection@mst@@QEAAXXZ = @ILT+13010(?clear@point_collection@mst@@QEAAXXZ)
        560  22F 00002DE2 ?clear@widget_collection@mst@@QEAAXXZ = @ILT+7645(?clear@widget_collection@mst@@QEAAXXZ)
        561  230 000033AA ?clicked@widget@mst@@QEAAXPEAV12@H@Z = @ILT+9125(?clicked@widget@mst@@QEAAXPEAV12@H@Z)
        562  231 00001EAB ?compare@mstring@mst@@QEBAHAEBV12@@Z = @ILT+3750(?compare@mstring@mst@@QEBAHAEBV12@@Z)
        563  232 00003D6E ?compare@mstring@mst@@QEBAHPEBD@Z = @ILT+11625(?compare@mstring@mst@@QEBAHPEBD@Z)
        564  233 00005D44 ?compare@mstring@mst@@QEBAH_K0AEBV12@00@Z = @ILT+19775(?compare@mstring@mst@@QEBAH_K0AEBV12@00@Z)
        565  234 000062DA ?compare@mstring@mst@@QEBAH_K0AEBV12@@Z = @ILT+21205(?compare@mstring@mst@@QEBAH_K0AEBV12@@Z)
        566  235 00002117 ?compare@mstring@mst@@QEBAH_K0PEBD0@Z = @ILT+4370(?compare@mstring@mst@@QEBAH_K0PEBD0@Z)
        567  236 000055C9 ?compare@mstring@mst@@QEBAH_K0PEBD@Z = @ILT+17860(?compare@mstring@mst@@QEBAH_K0PEBD@Z)
        568  237 000046F6 ?copy@mstring@mst@@QEBA_KPEAD_K1@Z = @ILT+14065(?copy@mstring@mst@@QEBA_KPEAD_K1@Z)
        569  238 0000679E ?crbegin@int_collection@mst@@QEBA?AVconst_reverse_iterator@12@XZ = @ILT+22425(?crbegin@int_collection@mst@@QEBA?AVconst_reverse_iterator@12@XZ)
        570  239 0000549D ?crbegin@mstring@mst@@QEBA?AVconst_reverse_iterator@12@XZ = @ILT+17560(?crbegin@mstring@mst@@QEBA?AVconst_reverse_iterator@12@XZ)
        571  23A 000058F8 ?crbegin@object_collection@mst@@QEBA?AVconst_reverse_iterator@12@XZ = @ILT+18675(?crbegin@object_collection@mst@@QEBA?AVconst_reverse_iterator@12@XZ)
        572  23B 0000704F ?crbegin@point_collection@mst@@QEBA?AVconst_reverse_iterator@12@XZ = @ILT+24650(?crbegin@point_collection@mst@@QEBA?AVconst_reverse_iterator@12@XZ)
        573  23C 00004039 ?crbegin@widget_collection@mst@@QEBA?AVconst_reverse_iterator@12@XZ = @ILT+12340(?crbegin@widget_collection@mst@@QEBA?AVconst_reverse_iterator@12@XZ)
        574  23D 0000253B ?crend@int_collection@mst@@QEBA?AVconst_reverse_iterator@12@XZ = @ILT+5430(?crend@int_collection@mst@@QEBA?AVconst_reverse_iterator@12@XZ)
        575  23E 00002EA0 ?crend@mstring@mst@@QEBA?AVconst_reverse_iterator@12@XZ = @ILT+7835(?crend@mstring@mst@@QEBA?AVconst_reverse_iterator@12@XZ)
        576  23F 00005B87 ?crend@object_collection@mst@@QEBA?AVconst_reverse_iterator@12@XZ = @ILT+19330(?crend@object_collection@mst@@QEBA?AVconst_reverse_iterator@12@XZ)
        577  240 00003F49 ?crend@point_collection@mst@@QEBA?AVconst_reverse_iterator@12@XZ = @ILT+12100(?crend@point_collection@mst@@QEBA?AVconst_reverse_iterator@12@XZ)
        578  241 000038D2 ?crend@widget_collection@mst@@QEBA?AVconst_reverse_iterator@12@XZ = @ILT+10445(?crend@widget_collection@mst@@QEBA?AVconst_reverse_iterator@12@XZ)
        579  242 00004877 ?draw_image@painter@mst@@QEAAXAEBVpoint@2@AEAV?$unique_ptr@Vimage@mst@@U?$default_delete@Vimage@mst@@@std@@@std@@@Z = @ILT+14450(?draw_image@painter@mst@@QEAAXAEBVpoint@2@AEAV?$unique_ptr@Vimage@mst@@U?$default_delete@Vimage@mst@@@std@@@std@@@Z)
        580  243 0000104B ?draw_image@painter@mst@@QEAAXAEBVrect@2@AEAV?$unique_ptr@Vimage@mst@@U?$default_delete@Vimage@mst@@@std@@@std@@0@Z = @ILT+70(?draw_image@painter@mst@@QEAAXAEBVrect@2@AEAV?$unique_ptr@Vimage@mst@@U?$default_delete@Vimage@mst@@@std@@@std@@0@Z)
        581  244 00006E24 ?draw_image@painter@mst@@QEAAXAEBVrect@2@AEAV?$unique_ptr@Vimage@mst@@U?$default_delete@Vimage@mst@@@std@@@std@@@Z = @ILT+24095(?draw_image@painter@mst@@QEAAXAEBVrect@2@AEAV?$unique_ptr@Vimage@mst@@U?$default_delete@Vimage@mst@@@std@@@std@@@Z)
        582  245 00001735 ?draw_image@painter@mst@@QEAAXHHAEAV?$unique_ptr@Vimage@mst@@U?$default_delete@Vimage@mst@@@std@@@std@@@Z = @ILT+1840(?draw_image@painter@mst@@QEAAXHHAEAV?$unique_ptr@Vimage@mst@@U?$default_delete@Vimage@mst@@@std@@@std@@@Z)
        583  246 00007621 ?draw_line@painter@mst@@QEAAXAEBVpoint@2@@Z = @ILT+26140(?draw_line@painter@mst@@QEAAXAEBVpoint@2@@Z)
        584  247 00001A2D ?draw_line@painter@mst@@QEAAXHH@Z = @ILT+2600(?draw_line@painter@mst@@QEAAXHH@Z)
        585  248 000044CB ?draw_text@painter@mst@@QEAAXAEBVpoint@2@AEBV?$basic_string@DU?$char_traits@D@std@@V?$allocator@D@2@@std@@@Z = @ILT+13510(?draw_text@painter@mst@@QEAAXAEBVpoint@2@AEBV?$basic_string@DU?$char_traits@D@std@@V?$allocator@D@2@@std@@@Z)
        586  249 00003CCE ?draw_text@painter@mst@@QEAAXHHAEBV?$basic_string@DU?$char_traits@D@std@@V?$allocator@D@2@@std@@@Z = @ILT+11465(?draw_text@painter@mst@@QEAAXHHAEBV?$basic_string@DU?$char_traits@D@std@@V?$allocator@D@2@@std@@@Z)
        587  24A 000047E6 ?dst_call@handler_connection_base@mst@@QEAAXPEAX0000@Z = @ILT+14305(?dst_call@handler_connection_base@mst@@QEAAXPEAX0000@Z)
        588  24B 00005254 ?empty@int_collection@mst@@QEBA_NXZ = @ILT+16975(?empty@int_collection@mst@@QEBA_NXZ)
        589  24C 00005FAB ?empty@mstring@mst@@QEBA_NXZ = @ILT+20390(?empty@mstring@mst@@QEBA_NXZ)
        590  24D 000077CA ?empty@object_collection@mst@@QEBA_NXZ = @ILT+26565(?empty@object_collection@mst@@QEBA_NXZ)
        591  24E 00004322 ?empty@point_collection@mst@@QEBA_NXZ = @ILT+13085(?empty@point_collection@mst@@QEBA_NXZ)
        592  24F 000069C9 ?empty@widget_collection@mst@@QEBA_NXZ = @ILT+22980(?empty@widget_collection@mst@@QEBA_NXZ)
        593  250 00001EC4 ?end@int_collection@mst@@QEAA?AViterator@12@XZ = @ILT+3775(?end@int_collection@mst@@QEAA?AViterator@12@XZ)
        594  251 00002FB3 ?end@int_collection@mst@@QEBA?AVconst_iterator@12@XZ = @ILT+8110(?end@int_collection@mst@@QEBA?AVconst_iterator@12@XZ)
        595  252 0000306C ?end@mstring@mst@@QEAA?AViterator@12@XZ = @ILT+8295(?end@mstring@mst@@QEAA?AViterator@12@XZ)
        596  253 00003BD4 ?end@mstring@mst@@QEBA?AVconst_iterator@12@XZ = @ILT+11215(?end@mstring@mst@@QEBA?AVconst_iterator@12@XZ)
        597  254 0000373D ?end@object_collection@mst@@QEAA?AViterator@12@XZ = @ILT+10040(?end@object_collection@mst@@QEAA?AViterator@12@XZ)
        598  255 000014C9 ?end@object_collection@mst@@QEBA?AVconst_iterator@12@XZ = @ILT+1220(?end@object_collection@mst@@QEBA?AVconst_iterator@12@XZ)
        599  256 00003035 ?end@point_collection@mst@@QEAA?AViterator@12@XZ = @ILT+8240(?end@point_collection@mst@@QEAA?AViterator@12@XZ)
        600  257 00006FC3 ?end@point_collection@mst@@QEBA?AVconst_iterator@12@XZ = @ILT+24510(?end@point_collection@mst@@QEBA?AVconst_iterator@12@XZ)
        601  258 000022E3 ?end@widget_collection@mst@@QEAA?AViterator@12@XZ = @ILT+4830(?end@widget_collection@mst@@QEAA?AViterator@12@XZ)
        602  259 00005466 ?end@widget_collection@mst@@QEBA?AVconst_iterator@12@XZ = @ILT+17505(?end@widget_collection@mst@@QEBA?AVconst_iterator@12@XZ)
        603  25A 00005687 ?erase@int_collection@mst@@QEAA?AViterator@12@V312@0@Z = @ILT+18050(?erase@int_collection@mst@@QEAA?AViterator@12@V312@0@Z)
        604  25B 00005795 ?erase@int_collection@mst@@QEAA?AViterator@12@V312@@Z = @ILT+18320(?erase@int_collection@mst@@QEAA?AViterator@12@V312@@Z)
        605  25C 000021DF ?erase@int_collection@mst@@QEAA?AViterator@12@Vconst_iterator@12@0@Z = @ILT+4570(?erase@int_collection@mst@@QEAA?AViterator@12@Vconst_iterator@12@0@Z)
        606  25D 00005736 ?erase@int_collection@mst@@QEAA?AViterator@12@Vconst_iterator@12@@Z = @ILT+18225(?erase@int_collection@mst@@QEAA?AViterator@12@Vconst_iterator@12@@Z)
        607  25E 00001AAA ?erase@mstring@mst@@QEAA?AViterator@12@V312@0@Z = @ILT+2725(?erase@mstring@mst@@QEAA?AViterator@12@V312@0@Z)
        608  25F 000038DC ?erase@mstring@mst@@QEAA?AViterator@12@V312@@Z = @ILT+10455(?erase@mstring@mst@@QEAA?AViterator@12@V312@@Z)
        609  260 00002838 ?erase@mstring@mst@@QEAA?AViterator@12@Vconst_iterator@12@0@Z = @ILT+6195(?erase@mstring@mst@@QEAA?AViterator@12@Vconst_iterator@12@0@Z)
        610  261 00003DBE ?erase@mstring@mst@@QEAA?AViterator@12@Vconst_iterator@12@@Z = @ILT+11705(?erase@mstring@mst@@QEAA?AViterator@12@Vconst_iterator@12@@Z)
        611  262 00004B8D ?erase@mstring@mst@@QEAAAEAV12@_K0@Z = @ILT+15240(?erase@mstring@mst@@QEAAAEAV12@_K0@Z)
        612  263 0000667C ?erase@object_collection@mst@@QEAA?AViterator@12@V312@0@Z = @ILT+22135(?erase@object_collection@mst@@QEAA?AViterator@12@V312@0@Z)
        613  264 00003774 ?erase@object_collection@mst@@QEAA?AViterator@12@V312@@Z = @ILT+10095(?erase@object_collection@mst@@QEAA?AViterator@12@V312@@Z)
        614  265 0000429B ?erase@object_collection@mst@@QEAA?AViterator@12@Vconst_iterator@12@0@Z = @ILT+12950(?erase@object_collection@mst@@QEAA?AViterator@12@Vconst_iterator@12@0@Z)
        615  266 00006406 ?erase@object_collection@mst@@QEAA?AViterator@12@Vconst_iterator@12@@Z = @ILT+21505(?erase@object_collection@mst@@QEAA?AViterator@12@Vconst_iterator@12@@Z)
        616  267 00004C96 ?erase@point_collection@mst@@QEAA?AViterator@12@V312@0@Z = @ILT+15505(?erase@point_collection@mst@@QEAA?AViterator@12@V312@0@Z)
        617  268 0000529F ?erase@point_collection@mst@@QEAA?AViterator@12@V312@@Z = @ILT+17050(?erase@point_collection@mst@@QEAA?AViterator@12@V312@@Z)
        618  269 0000363E ?erase@point_collection@mst@@QEAA?AViterator@12@Vconst_iterator@12@0@Z = @ILT+9785(?erase@point_collection@mst@@QEAA?AViterator@12@Vconst_iterator@12@0@Z)
        619  26A 000049A3 ?erase@point_collection@mst@@QEAA?AViterator@12@Vconst_iterator@12@@Z = @ILT+14750(?erase@point_collection@mst@@QEAA?AViterator@12@Vconst_iterator@12@@Z)
        620  26B 00005A65 ?erase@widget_collection@mst@@QEAA?AViterator@12@V312@0@Z = @ILT+19040(?erase@widget_collection@mst@@QEAA?AViterator@12@V312@0@Z)
        621  26C 000036CA ?erase@widget_collection@mst@@QEAA?AViterator@12@V312@@Z = @ILT+9925(?erase@widget_collection@mst@@QEAA?AViterator@12@V312@@Z)
        622  26D 00001569 ?erase@widget_collection@mst@@QEAA?AViterator@12@Vconst_iterator@12@0@Z = @ILT+1380(?erase@widget_collection@mst@@QEAA?AViterator@12@Vconst_iterator@12@0@Z)
        623  26E 00007013 ?erase@widget_collection@mst@@QEAA?AViterator@12@Vconst_iterator@12@@Z = @ILT+24590(?erase@widget_collection@mst@@QEAA?AViterator@12@Vconst_iterator@12@@Z)
        624  26F 00001C8F ?fill_ellipse@painter@mst@@QEAAXAEBVrect@2@@Z = @ILT+3210(?fill_ellipse@painter@mst@@QEAAXAEBVrect@2@@Z)
        625  270 0000376A ?fill_ellipse@painter@mst@@QEAAXHHII@Z = @ILT+10085(?fill_ellipse@painter@mst@@QEAAXHHII@Z)
        626  271 00003909 ?fill_rect@painter@mst@@QEAAXAEBVrect@2@@Z = @ILT+10500(?fill_rect@painter@mst@@QEAAXAEBVrect@2@@Z)
        627  272 000016E5 ?fill_rect@painter@mst@@QEAAXHHII@Z = @ILT+1760(?fill_rect@painter@mst@@QEAAXHHII@Z)
        628  273 0000369D ?find@mstring@mst@@QEBA_KAEBV12@_K@Z = @ILT+9880(?find@mstring@mst@@QEBA_KAEBV12@_K@Z)
        629  274 000067BC ?find@mstring@mst@@QEBA_KD_K@Z = @ILT+22455(?find@mstring@mst@@QEBA_KD_K@Z)
        630  275 00006230 ?find@mstring@mst@@QEBA_KPEBD_K1@Z = @ILT+21035(?find@mstring@mst@@QEBA_KPEBD_K1@Z)
        631  276 0000407A ?find@mstring@mst@@QEBA_KPEBD_K@Z = @ILT+12405(?find@mstring@mst@@QEBA_KPEBD_K@Z)
        632  277 00002BD5 ?find_first_not_of@mstring@mst@@QEBA_KAEBV12@_K@Z = @ILT+7120(?find_first_not_of@mstring@mst@@QEBA_KAEBV12@_K@Z)
        633  278 000040ED ?find_first_not_of@mstring@mst@@QEBA_KD_K@Z = @ILT+12520(?find_first_not_of@mstring@mst@@QEBA_KD_K@Z)
        634  279 000077CF ?find_first_not_of@mstring@mst@@QEBA_KPEBD_K1@Z = @ILT+26570(?find_first_not_of@mstring@mst@@QEBA_KPEBD_K1@Z)
        635  27A 00005CF9 ?find_first_not_of@mstring@mst@@QEBA_KPEBD_K@Z = @ILT+19700(?find_first_not_of@mstring@mst@@QEBA_KPEBD_K@Z)
        636  27B 000051FA ?find_first_of@mstring@mst@@QEBA_KAEBV12@_K@Z = @ILT+16885(?find_first_of@mstring@mst@@QEBA_KAEBV12@_K@Z)
        637  27C 00001EFB ?find_first_of@mstring@mst@@QEBA_KD_K@Z = @ILT+3830(?find_first_of@mstring@mst@@QEBA_KD_K@Z)
        638  27D 000018CA ?find_first_of@mstring@mst@@QEBA_KPEBD_K1@Z = @ILT+2245(?find_first_of@mstring@mst@@QEBA_KPEBD_K1@Z)
        639  27E 00006A23 ?find_first_of@mstring@mst@@QEBA_KPEBD_K@Z = @ILT+23070(?find_first_of@mstring@mst@@QEBA_KPEBD_K@Z)
        640  27F 00006208 ?find_last_not_of@mstring@mst@@QEBA_KAEBV12@_K@Z = @ILT+20995(?find_last_not_of@mstring@mst@@QEBA_KAEBV12@_K@Z)
        641  280 00003422 ?find_last_not_of@mstring@mst@@QEBA_KD_K@Z = @ILT+9245(?find_last_not_of@mstring@mst@@QEBA_KD_K@Z)
        642  281 00003355 ?find_last_not_of@mstring@mst@@QEBA_KPEBD_K1@Z = @ILT+9040(?find_last_not_of@mstring@mst@@QEBA_KPEBD_K1@Z)
        643  282 00001CA8 ?find_last_not_of@mstring@mst@@QEBA_KPEBD_K@Z = @ILT+3235(?find_last_not_of@mstring@mst@@QEBA_KPEBD_K@Z)
        644  283 00002B12 ?find_last_of@mstring@mst@@QEBA_KAEBV12@_K@Z = @ILT+6925(?find_last_of@mstring@mst@@QEBA_KAEBV12@_K@Z)
        645  284 00001708 ?find_last_of@mstring@mst@@QEBA_KD_K@Z = @ILT+1795(?find_last_of@mstring@mst@@QEBA_KD_K@Z)
        646  285 000045F7 ?find_last_of@mstring@mst@@QEBA_KPEBD_K1@Z = @ILT+13810(?find_last_of@mstring@mst@@QEBA_KPEBD_K1@Z)
        647  286 00001078 ?find_last_of@mstring@mst@@QEBA_KPEBD_K@Z = @ILT+115(?find_last_of@mstring@mst@@QEBA_KPEBD_K@Z)
        648  287 00003922 ?front@int_collection@mst@@QEAAAEAHXZ = @ILT+10525(?front@int_collection@mst@@QEAAAEAHXZ)
        649  288 00006D25 ?front@int_collection@mst@@QEBAAEBHXZ = @ILT+23840(?front@int_collection@mst@@QEBAAEBHXZ)
        650  289 00001B1D ?front@mstring@mst@@QEAAAEADXZ = @ILT+2840(?front@mstring@mst@@QEAAAEADXZ)
        651  28A 00004FA7 ?front@mstring@mst@@QEBAAEBDXZ = @ILT+16290(?front@mstring@mst@@QEBAAEBDXZ)
        652  28B 000015B4 ?front@object_collection@mst@@QEAAAEAPEAVobject@2@XZ = @ILT+1455(?front@object_collection@mst@@QEAAAEAPEAVobject@2@XZ)
        653  28C 00002B3A ?front@object_collection@mst@@QEBAAEBQEAVobject@2@XZ = @ILT+6965(?front@object_collection@mst@@QEBAAEBQEAVobject@2@XZ)
        654  28D 000059E3 ?front@point_collection@mst@@QEAAAEAVpoint@2@XZ = @ILT+18910(?front@point_collection@mst@@QEAAAEAVpoint@2@XZ)
        655  28E 000074DC ?front@point_collection@mst@@QEBAAEBVpoint@2@XZ = @ILT+25815(?front@point_collection@mst@@QEBAAEBVpoint@2@XZ)
        656  28F 0000650F ?front@widget_collection@mst@@QEAAAEAPEAVwidget@2@XZ = @ILT+21770(?front@widget_collection@mst@@QEAAAEAPEAVwidget@2@XZ)
        657  290 000011F9 ?front@widget_collection@mst@@QEBAAEBQEAVwidget@2@XZ = @ILT+500(?front@widget_collection@mst@@QEBAAEBQEAVwidget@2@XZ)
        658  291 00002EC3 ?g@color@mst@@QEBAEXZ = @ILT+7870(?g@color@mst@@QEBAEXZ)
        659  292 00184058 ?green@color@mst@@2V12@B = ?green@color@mst@@2V12@B (public: static class mst::color const mst::color::green)
        660  293 00005FF6 ?height@image@mst@@QEAAHXZ = @ILT+20465(?height@image@mst@@QEAAHXZ)
        661  294 000070C2 ?height@widget@mst@@QEAAHXZ = @ILT+24765(?height@widget@mst@@QEAAHXZ)
        662  295 000066BD ?init@method_ptr_base@mst@@QEAAXPEAVwidget@2@PEAXPEBD@Z = @ILT+22200(?init@method_ptr_base@mst@@QEAAXPEAVwidget@2@PEAXPEBD@Z)
        663  296 00006CDA ?init@window@mst@@UEAAXXZ = @ILT+23765(?init@window@mst@@UEAAXXZ)
        664  297 00003873 ?insert@int_collection@mst@@QEAA?AViterator@12@V312@AEBH@Z = @ILT+10350(?insert@int_collection@mst@@QEAA?AViterator@12@V312@AEBH@Z)
        665  298 000075AE ?insert@int_collection@mst@@QEAA?AViterator@12@Vconst_iterator@12@$$QEAH@Z = @ILT+26025(?insert@int_collection@mst@@QEAA?AViterator@12@Vconst_iterator@12@$$QEAH@Z)
        666  299 00004E0D ?insert@int_collection@mst@@QEAA?AViterator@12@Vconst_iterator@12@00@Z = @ILT+15880(?insert@int_collection@mst@@QEAA?AViterator@12@Vconst_iterator@12@00@Z)
        667  29A 00002009 ?insert@int_collection@mst@@QEAA?AViterator@12@Vconst_iterator@12@AEBH@Z = @ILT+4100(?insert@int_collection@mst@@QEAA?AViterator@12@Vconst_iterator@12@AEBH@Z)
        668  29B 000073A1 ?insert@int_collection@mst@@QEAA?AViterator@12@Vconst_iterator@12@V312@1@Z = @ILT+25500(?insert@int_collection@mst@@QEAA?AViterator@12@Vconst_iterator@12@V312@1@Z)
        669  29C 00006500 ?insert@int_collection@mst@@QEAA?AViterator@12@Vconst_iterator@12@_KAEBH@Z = @ILT+21755(?insert@int_collection@mst@@QEAA?AViterator@12@Vconst_iterator@12@_KAEBH@Z)
        670  29D 00003E8B ?insert@int_collection@mst@@QEAAXViterator@12@00@Z = @ILT+11910(?insert@int_collection@mst@@QEAAXViterator@12@00@Z)
        671  29E 000076C1 ?insert@int_collection@mst@@QEAAXViterator@12@Vconst_iterator@12@1@Z = @ILT+26300(?insert@int_collection@mst@@QEAAXViterator@12@Vconst_iterator@12@1@Z)
        672  29F 0000150F ?insert@int_collection@mst@@QEAAXViterator@12@_KAEBH@Z = @ILT+1290(?insert@int_collection@mst@@QEAAXViterator@12@_KAEBH@Z)
        673  2A0 000046B0 ?insert@mstring@mst@@QEAA?AViterator@12@V312@AEBD@Z = @ILT+13995(?insert@mstring@mst@@QEAA?AViterator@12@V312@AEBD@Z)
        674  2A1 000025CC ?insert@mstring@mst@@QEAA?AViterator@12@Vconst_iterator@12@$$QEAD@Z = @ILT+5575(?insert@mstring@mst@@QEAA?AViterator@12@Vconst_iterator@12@$$QEAD@Z)
        675  2A2 00005AAB ?insert@mstring@mst@@QEAA?AViterator@12@Vconst_iterator@12@00@Z = @ILT+19110(?insert@mstring@mst@@QEAA?AViterator@12@Vconst_iterator@12@00@Z)
        676  2A3 00004D8B ?insert@mstring@mst@@QEAA?AViterator@12@Vconst_iterator@12@AEBD@Z = @ILT+15750(?insert@mstring@mst@@QEAA?AViterator@12@Vconst_iterator@12@AEBD@Z)
        677  2A4 000012C1 ?insert@mstring@mst@@QEAA?AViterator@12@Vconst_iterator@12@V312@1@Z = @ILT+700(?insert@mstring@mst@@QEAA?AViterator@12@Vconst_iterator@12@V312@1@Z)
        678  2A5 00005AA1 ?insert@mstring@mst@@QEAA?AViterator@12@Vconst_iterator@12@_KAEBD@Z = @ILT+19100(?insert@mstring@mst@@QEAA?AViterator@12@Vconst_iterator@12@_KAEBD@Z)
        679  2A6 00003F53 ?insert@mstring@mst@@QEAAAEAV12@_K0D@Z = @ILT+12110(?insert@mstring@mst@@QEAAAEAV12@_K0D@Z)
        680  2A7 00004D45 ?insert@mstring@mst@@QEAAAEAV12@_KAEBV12@00@Z = @ILT+15680(?insert@mstring@mst@@QEAAAEAV12@_KAEBV12@00@Z)
        681  2A8 000048E0 ?insert@mstring@mst@@QEAAAEAV12@_KAEBV12@@Z = @ILT+14555(?insert@mstring@mst@@QEAAAEAV12@_KAEBV12@@Z)
        682  2A9 00001046 ?insert@mstring@mst@@QEAAAEAV12@_KPEBD0@Z = @ILT+65(?insert@mstring@mst@@QEAAAEAV12@_KPEBD0@Z)
        683  2AA 00006FCD ?insert@mstring@mst@@QEAAAEAV12@_KPEBD@Z = @ILT+24520(?insert@mstring@mst@@QEAAAEAV12@_KPEBD@Z)
        684  2AB 00005614 ?insert@mstring@mst@@QEAAXViterator@12@00@Z = @ILT+17935(?insert@mstring@mst@@QEAAXViterator@12@00@Z)
        685  2AC 00002EF0 ?insert@mstring@mst@@QEAAXViterator@12@Vconst_iterator@12@1@Z = @ILT+7915(?insert@mstring@mst@@QEAAXViterator@12@Vconst_iterator@12@1@Z)
        686  2AD 00005D76 ?insert@mstring@mst@@QEAAXViterator@12@_KAEBD@Z = @ILT+19825(?insert@mstring@mst@@QEAAXViterator@12@_KAEBD@Z)
        687  2AE 000076B7 ?insert@object_collection@mst@@QEAA?AViterator@12@V312@AEBQEAVobject@2@@Z = @ILT+26290(?insert@object_collection@mst@@QEAA?AViterator@12@V312@AEBQEAVobject@2@@Z)
        688  2AF 000034BD ?insert@object_collection@mst@@QEAA?AViterator@12@Vconst_iterator@12@$$QEAPEAVobject@2@@Z = @ILT+9400(?insert@object_collection@mst@@QEAA?AViterator@12@Vconst_iterator@12@$$QEAPEAVobject@2@@Z)
        689  2B0 00005E75 ?insert@object_collection@mst@@QEAA?AViterator@12@Vconst_iterator@12@00@Z = @ILT+20080(?insert@object_collection@mst@@QEAA?AViterator@12@Vconst_iterator@12@00@Z)
        690  2B1 00005533 ?insert@object_collection@mst@@QEAA?AViterator@12@Vconst_iterator@12@AEBQEAVobject@2@@Z = @ILT+17710(?insert@object_collection@mst@@QEAA?AViterator@12@Vconst_iterator@12@AEBQEAVobject@2@@Z)
        691  2B2 0000291E ?insert@object_collection@mst@@QEAA?AViterator@12@Vconst_iterator@12@V312@1@Z = @ILT+6425(?insert@object_collection@mst@@QEAA?AViterator@12@Vconst_iterator@12@V312@1@Z)
        692  2B3 0000728E ?insert@object_collection@mst@@QEAA?AViterator@12@Vconst_iterator@12@_KAEBQEAVobject@2@@Z = @ILT+25225(?insert@object_collection@mst@@QEAA?AViterator@12@Vconst_iterator@12@_KAEBQEAVobject@2@@Z)
        693  2B4 00003724 ?insert@object_collection@mst@@QEAAXViterator@12@00@Z = @ILT+10015(?insert@object_collection@mst@@QEAAXViterator@12@00@Z)
        694  2B5 00004BAB ?insert@object_collection@mst@@QEAAXViterator@12@Vconst_iterator@12@1@Z = @ILT+15270(?insert@object_collection@mst@@QEAAXViterator@12@Vconst_iterator@12@1@Z)
        695  2B6 00002554 ?insert@object_collection@mst@@QEAAXViterator@12@_KAEBQEAVobject@2@@Z = @ILT+5455(?insert@object_collection@mst@@QEAAXViterator@12@_KAEBQEAVobject@2@@Z)
        696  2B7 00002810 ?insert@point_collection@mst@@QEAA?AViterator@12@V312@AEBVpoint@2@@Z = @ILT+6155(?insert@point_collection@mst@@QEAA?AViterator@12@V312@AEBVpoint@2@@Z)
        697  2B8 00002DBF ?insert@point_collection@mst@@QEAA?AViterator@12@Vconst_iterator@12@$$QEAVpoint@2@@Z = @ILT+7610(?insert@point_collection@mst@@QEAA?AViterator@12@Vconst_iterator@12@$$QEAVpoint@2@@Z)
        698  2B9 00003E13 ?insert@point_collection@mst@@QEAA?AViterator@12@Vconst_iterator@12@00@Z = @ILT+11790(?insert@point_collection@mst@@QEAA?AViterator@12@Vconst_iterator@12@00@Z)
        699  2BA 00005FC9 ?insert@point_collection@mst@@QEAA?AViterator@12@Vconst_iterator@12@AEBVpoint@2@@Z = @ILT+20420(?insert@point_collection@mst@@QEAA?AViterator@12@Vconst_iterator@12@AEBVpoint@2@@Z)
        700  2BB 00003C60 ?insert@point_collection@mst@@QEAA?AViterator@12@Vconst_iterator@12@V312@1@Z = @ILT+11355(?insert@point_collection@mst@@QEAA?AViterator@12@Vconst_iterator@12@V312@1@Z)
        701  2BC 00006F14 ?insert@point_collection@mst@@QEAA?AViterator@12@Vconst_iterator@12@_KAEBVpoint@2@@Z = @ILT+24335(?insert@point_collection@mst@@QEAA?AViterator@12@Vconst_iterator@12@_KAEBVpoint@2@@Z)
        702  2BD 0000733D ?insert@point_collection@mst@@QEAAXViterator@12@00@Z = @ILT+25400(?insert@point_collection@mst@@QEAAXViterator@12@00@Z)
        703  2BE 00003440 ?insert@point_collection@mst@@QEAAXViterator@12@Vconst_iterator@12@1@Z = @ILT+9275(?insert@point_collection@mst@@QEAAXViterator@12@Vconst_iterator@12@1@Z)
        704  2BF 00003409 ?insert@point_collection@mst@@QEAAXViterator@12@_KAEBVpoint@2@@Z = @ILT+9220(?insert@point_collection@mst@@QEAAXViterator@12@_KAEBVpoint@2@@Z)
        705  2C0 00003161 ?insert@widget_collection@mst@@QEAA?AViterator@12@V312@AEBQEAVwidget@2@@Z = @ILT+8540(?insert@widget_collection@mst@@QEAA?AViterator@12@V312@AEBQEAVwidget@2@@Z)
        706  2C1 00006CA3 ?insert@widget_collection@mst@@QEAA?AViterator@12@Vconst_iterator@12@$$QEAPEAVwidget@2@@Z = @ILT+23710(?insert@widget_collection@mst@@QEAA?AViterator@12@Vconst_iterator@12@$$QEAPEAVwidget@2@@Z)
        707  2C2 00001C21 ?insert@widget_collection@mst@@QEAA?AViterator@12@Vconst_iterator@12@00@Z = @ILT+3100(?insert@widget_collection@mst@@QEAA?AViterator@12@Vconst_iterator@12@00@Z)
        708  2C3 0000489A ?insert@widget_collection@mst@@QEAA?AViterator@12@Vconst_iterator@12@AEBQEAVwidget@2@@Z = @ILT+14485(?insert@widget_collection@mst@@QEAA?AViterator@12@Vconst_iterator@12@AEBQEAVwidget@2@@Z)
        709  2C4 000054B6 ?insert@widget_collection@mst@@QEAA?AViterator@12@Vconst_iterator@12@V312@1@Z = @ILT+17585(?insert@widget_collection@mst@@QEAA?AViterator@12@Vconst_iterator@12@V312@1@Z)
        710  2C5 00004278 ?insert@widget_collection@mst@@QEAA?AViterator@12@Vconst_iterator@12@_KAEBQEAVwidget@2@@Z = @ILT+12915(?insert@widget_collection@mst@@QEAA?AViterator@12@Vconst_iterator@12@_KAEBQEAVwidget@2@@Z)
        711  2C6 00002CCA ?insert@widget_collection@mst@@QEAAXViterator@12@00@Z = @ILT+7365(?insert@widget_collection@mst@@QEAAXViterator@12@00@Z)
        712  2C7 00002F9F ?insert@widget_collection@mst@@QEAAXViterator@12@Vconst_iterator@12@1@Z = @ILT+8090(?insert@widget_collection@mst@@QEAAXViterator@12@Vconst_iterator@12@1@Z)
        713  2C8 00003F71 ?insert@widget_collection@mst@@QEAAXViterator@12@_KAEBQEAVwidget@2@@Z = @ILT+12140(?insert@widget_collection@mst@@QEAAXViterator@12@_KAEBQEAVwidget@2@@Z)
        714  2C9 000042F0 ?invalidate@widget@mst@@QEAAXAEBVrect@2@@Z = @ILT+13035(?invalidate@widget@mst@@QEAAXAEBVrect@2@@Z)
        715  2CA 0000721B ?invalidate@widget@mst@@QEAAXXZ = @ILT+25110(?invalidate@widget@mst@@QEAAXXZ)
        716  2CB 00006F64 ?length@mstring@mst@@QEBA_KXZ = @ILT+24415(?length@mstring@mst@@QEBA_KXZ)
        717  2CC 00184050 ?magenta@color@mst@@2V12@B = ?magenta@color@mst@@2V12@B (public: static class mst::color const mst::color::magenta)
        718  2CD 00001C80 ?method_name@method_ptr_base@mst@@QEAA?AV?$basic_string@DU?$char_traits@D@std@@V?$allocator@D@2@@std@@XZ = @ILT+3195(?method_name@method_ptr_base@mst@@QEAA?AV?$basic_string@DU?$char_traits@D@std@@V?$allocator@D@2@@std@@XZ)
        719  2CE 00002581 ?method_name@widget@mst@@QEAA?AV?$basic_string@DU?$char_traits@D@std@@V?$allocator@D@2@@std@@PEAX@Z = @ILT+5500(?method_name@widget@mst@@QEAA?AV?$basic_string@DU?$char_traits@D@std@@V?$allocator@D@2@@std@@PEAX@Z)
        720  2CF 0000545C ?move@widget@mst@@QEAAXAEBVpoint@2@@Z = @ILT+17495(?move@widget@mst@@QEAAXAEBVpoint@2@@Z)
        721  2D0 00002DE7 ?move@widget@mst@@QEAAXHH@Z = @ILT+7650(?move@widget@mst@@QEAAXHH@Z)
        722  2D1 00004A0C ?move_to@painter@mst@@QEAAXAEBVpoint@2@@Z = @ILT+14855(?move_to@painter@mst@@QEAAXAEBVpoint@2@@Z)
        723  2D2 0000566E ?move_to@painter@mst@@QEAAXHH@Z = @ILT+18025(?move_to@painter@mst@@QEAAXHH@Z)
        724  2D3 0011DF10 ?npos@mstring@mst@@2_KB = ?npos@mstring@mst@@2_KB (public: static unsigned __int64 const mst::mstring::npos)
        725  2D4 00002F8B ?object@method_ptr_base@mst@@QEAAPEAVwidget@2@XZ = @ILT+8070(?object@method_ptr_base@mst@@QEAAPEAVwidget@2@XZ)
        726  2D5 00004B83 ?on_mouse_down@widget@mst@@UEAAXAEAVmouse_event@2@@Z = @ILT+15230(?on_mouse_down@widget@mst@@UEAAXAEAVmouse_event@2@@Z)
        727  2D6 0000263A ?on_mouse_down@window@mst@@UEAAXAEAVmouse_event@2@@Z = @ILT+5685(?on_mouse_down@window@mst@@UEAAXAEAVmouse_event@2@@Z)
        728  2D7 0000330A ?on_mouse_move@widget@mst@@UEAAXAEAVmouse_event@2@@Z = @ILT+8965(?on_mouse_move@widget@mst@@UEAAXAEAVmouse_event@2@@Z)
        729  2D8 000029AA ?on_mouse_move@window@mst@@UEAAXAEAVmouse_event@2@@Z = @ILT+6565(?on_mouse_move@window@mst@@UEAAXAEAVmouse_event@2@@Z)
        730  2D9 00004BB5 ?on_mouse_up@widget@mst@@UEAAXAEAVmouse_event@2@@Z = @ILT+15280(?on_mouse_up@widget@mst@@UEAAXAEAVmouse_event@2@@Z)
        731  2DA 00005E48 ?on_mouse_up@window@mst@@UEAAXAEAVmouse_event@2@@Z = @ILT+20035(?on_mouse_up@window@mst@@UEAAXAEAVmouse_event@2@@Z)
        732  2DB 00003D9B ?on_paint@widget@mst@@UEAAXAEAVpaint_event@2@@Z = @ILT+11670(?on_paint@widget@mst@@UEAAXAEAVpaint_event@2@@Z)
        733  2DC 00004BF6 ?on_paint@window@mst@@UEAAXAEAVpaint_event@2@@Z = @ILT+15345(?on_paint@window@mst@@UEAAXAEAVpaint_event@2@@Z)
        734  2DD 00005812 ?on_resize@widget@mst@@UEAAXAEAVresize_event@2@@Z = @ILT+18445(?on_resize@widget@mst@@UEAAXAEAVresize_event@2@@Z)
        735  2DE 00004E80 ?on_resize@window@mst@@UEAAXAEAVresize_event@2@@Z = @ILT+15995(?on_resize@window@mst@@UEAAXAEAVresize_event@2@@Z)
        736  2DF 00001DED ?painter@image@mst@@QEAAPEAV02@XZ = @ILT+3560(?painter@image@mst@@QEAAPEAV02@XZ)
        737  2E0 0000745A ?painter@widget@mst@@UEAAPEAV02@XZ = @ILT+25685(?painter@widget@mst@@UEAAPEAV02@XZ)
        738  2E1 00005E93 ?parent@widget@mst@@QEAAPEAV12@XZ = @ILT+20110(?parent@widget@mst@@QEAAPEAV12@XZ)
        739  2E2 0000361B ?pop_back@int_collection@mst@@QEAAXXZ = @ILT+9750(?pop_back@int_collection@mst@@QEAAXXZ)
        740  2E3 00004E6C ?pop_back@mstring@mst@@QEAAXXZ = @ILT+15975(?pop_back@mstring@mst@@QEAAXXZ)
        741  2E4 000056C3 ?pop_back@object_collection@mst@@QEAAXXZ = @ILT+18110(?pop_back@object_collection@mst@@QEAAXXZ)
        742  2E5 000032D3 ?pop_back@point_collection@mst@@QEAAXXZ = @ILT+8910(?pop_back@point_collection@mst@@QEAAXXZ)
        743  2E6 0000632F ?pop_back@widget_collection@mst@@QEAAXXZ = @ILT+21290(?pop_back@widget_collection@mst@@QEAAXXZ)
        744  2E7 000053A3 ?push_back@int_collection@mst@@QEAAX$$QEAH@Z = @ILT+17310(?push_back@int_collection@mst@@QEAAX$$QEAH@Z)
        745  2E8 00007496 ?push_back@int_collection@mst@@QEAAXAEBH@Z = @ILT+25745(?push_back@int_collection@mst@@QEAAXAEBH@Z)
        746  2E9 000018C0 ?push_back@mstring@mst@@QEAAX$$QEAD@Z = @ILT+2235(?push_back@mstring@mst@@QEAAX$$QEAD@Z)
        747  2EA 00006E3D ?push_back@mstring@mst@@QEAAXAEBD@Z = @ILT+24120(?push_back@mstring@mst@@QEAAXAEBD@Z)
        748  2EB 00005E57 ?push_back@object_collection@mst@@QEAAX$$QEAPEAVobject@2@@Z = @ILT+20050(?push_back@object_collection@mst@@QEAAX$$QEAPEAVobject@2@@Z)
        749  2EC 00004D36 ?push_back@object_collection@mst@@QEAAXAEBQEAVobject@2@@Z = @ILT+15665(?push_back@object_collection@mst@@QEAAXAEBQEAVobject@2@@Z)
        750  2ED 000051F5 ?push_back@point_collection@mst@@QEAAX$$QEAVpoint@2@@Z = @ILT+16880(?push_back@point_collection@mst@@QEAAX$$QEAVpoint@2@@Z)
        751  2EE 00007162 ?push_back@point_collection@mst@@QEAAXAEBVpoint@2@@Z = @ILT+24925(?push_back@point_collection@mst@@QEAAXAEBVpoint@2@@Z)
        752  2EF 000026A8 ?push_back@widget_collection@mst@@QEAAX$$QEAPEAVwidget@2@@Z = @ILT+5795(?push_back@widget_collection@mst@@QEAAX$$QEAPEAVwidget@2@@Z)
        753  2F0 00001EF1 ?push_back@widget_collection@mst@@QEAAXAEBQEAVwidget@2@@Z = @ILT+3820(?push_back@widget_collection@mst@@QEAAXAEBQEAVwidget@2@@Z)
        754  2F1 0000286A ?r@color@mst@@QEBAEXZ = @ILT+6245(?r@color@mst@@QEBAEXZ)
        755  2F2 000036B1 ?rbegin@int_collection@mst@@QEAA?AVreverse_iterator@12@XZ = @ILT+9900(?rbegin@int_collection@mst@@QEAA?AVreverse_iterator@12@XZ)
        756  2F3 000065F0 ?rbegin@int_collection@mst@@QEBA?AVconst_reverse_iterator@12@XZ = @ILT+21995(?rbegin@int_collection@mst@@QEBA?AVconst_reverse_iterator@12@XZ)
        757  2F4 00001C5D ?rbegin@mstring@mst@@QEAA?AVreverse_iterator@12@XZ = @ILT+3160(?rbegin@mstring@mst@@QEAA?AVreverse_iterator@12@XZ)
        758  2F5 000055F6 ?rbegin@mstring@mst@@QEBA?AVconst_reverse_iterator@12@XZ = @ILT+17905(?rbegin@mstring@mst@@QEBA?AVconst_reverse_iterator@12@XZ)
        759  2F6 00002A31 ?rbegin@object_collection@mst@@QEAA?AVreverse_iterator@12@XZ = @ILT+6700(?rbegin@object_collection@mst@@QEAA?AVreverse_iterator@12@XZ)
        760  2F7 00006ADC ?rbegin@object_collection@mst@@QEBA?AVconst_reverse_iterator@12@XZ = @ILT+23255(?rbegin@object_collection@mst@@QEBA?AVconst_reverse_iterator@12@XZ)
        761  2F8 00001A55 ?rbegin@point_collection@mst@@QEAA?AVreverse_iterator@12@XZ = @ILT+2640(?rbegin@point_collection@mst@@QEAA?AVreverse_iterator@12@XZ)
        762  2F9 000068A7 ?rbegin@point_collection@mst@@QEBA?AVconst_reverse_iterator@12@XZ = @ILT+22690(?rbegin@point_collection@mst@@QEBA?AVconst_reverse_iterator@12@XZ)
        763  2FA 0000511E ?rbegin@widget_collection@mst@@QEAA?AVreverse_iterator@12@XZ = @ILT+16665(?rbegin@widget_collection@mst@@QEAA?AVreverse_iterator@12@XZ)
        764  2FB 00004138 ?rbegin@widget_collection@mst@@QEBA?AVconst_reverse_iterator@12@XZ = @ILT+12595(?rbegin@widget_collection@mst@@QEBA?AVconst_reverse_iterator@12@XZ)
        765  2FC 00184060 ?red@color@mst@@2V12@B = ?red@color@mst@@2V12@B (public: static class mst::color const mst::color::red)
        766  2FD 000045DE ?rend@int_collection@mst@@QEAA?AVreverse_iterator@12@XZ = @ILT+13785(?rend@int_collection@mst@@QEAA?AVreverse_iterator@12@XZ)
        767  2FE 000045E3 ?rend@int_collection@mst@@QEBA?AVconst_reverse_iterator@12@XZ = @ILT+13790(?rend@int_collection@mst@@QEBA?AVconst_reverse_iterator@12@XZ)
        768  2FF 00005146 ?rend@mstring@mst@@QEAA?AVreverse_iterator@12@XZ = @ILT+16705(?rend@mstring@mst@@QEAA?AVreverse_iterator@12@XZ)
        769  300 00005C5E ?rend@mstring@mst@@QEBA?AVconst_reverse_iterator@12@XZ = @ILT+19545(?rend@mstring@mst@@QEBA?AVconst_reverse_iterator@12@XZ)
        770  301 00001F87 ?rend@object_collection@mst@@QEAA?AVreverse_iterator@12@XZ = @ILT+3970(?rend@object_collection@mst@@QEAA?AVreverse_iterator@12@XZ)
        771  302 00006D70 ?rend@object_collection@mst@@QEBA?AVconst_reverse_iterator@12@XZ = @ILT+23915(?rend@object_collection@mst@@QEBA?AVconst_reverse_iterator@12@XZ)
        772  303 00006811 ?rend@point_collection@mst@@QEAA?AVreverse_iterator@12@XZ = @ILT+22540(?rend@point_collection@mst@@QEAA?AVreverse_iterator@12@XZ)
        773  304 00002509 ?rend@point_collection@mst@@QEBA?AVconst_reverse_iterator@12@XZ = @ILT+5380(?rend@point_collection@mst@@QEBA?AVconst_reverse_iterator@12@XZ)
        774  305 00002EB9 ?rend@widget_collection@mst@@QEAA?AVreverse_iterator@12@XZ = @ILT+7860(?rend@widget_collection@mst@@QEAA?AVreverse_iterator@12@XZ)
        775  306 00005CC2 ?rend@widget_collection@mst@@QEBA?AVconst_reverse_iterator@12@XZ = @ILT+19645(?rend@widget_collection@mst@@QEBA?AVconst_reverse_iterator@12@XZ)
        776  307 00002612 ?replace@mstring@mst@@QEAAAEAV12@Vconst_iterator@12@0AEBV12@@Z = @ILT+5645(?replace@mstring@mst@@QEAAAEAV12@Vconst_iterator@12@0AEBV12@@Z)
        777  308 00002DDD ?replace@mstring@mst@@QEAAAEAV12@Vconst_iterator@12@0PEBD@Z = @ILT+7640(?replace@mstring@mst@@QEAAAEAV12@Vconst_iterator@12@0PEBD@Z)
        778  309 00005CD6 ?replace@mstring@mst@@QEAAAEAV12@Vconst_iterator@12@0PEBD_K@Z = @ILT+19665(?replace@mstring@mst@@QEAAAEAV12@Vconst_iterator@12@0PEBD_K@Z)
        779  30A 00004A3E ?replace@mstring@mst@@QEAAAEAV12@Vconst_iterator@12@0Viterator@12@1@Z = @ILT+14905(?replace@mstring@mst@@QEAAAEAV12@Vconst_iterator@12@0Viterator@12@1@Z)
        780  30B 0000502E ?replace@mstring@mst@@QEAAAEAV12@Vconst_iterator@12@0_KD@Z = @ILT+16425(?replace@mstring@mst@@QEAAAEAV12@Vconst_iterator@12@0_KD@Z)
        781  30C 000027F7 ?replace@mstring@mst@@QEAAAEAV12@_K00D@Z = @ILT+6130(?replace@mstring@mst@@QEAAAEAV12@_K00D@Z)
        782  30D 000014EC ?replace@mstring@mst@@QEAAAEAV12@_K0AEBV12@00@Z = @ILT+1255(?replace@mstring@mst@@QEAAAEAV12@_K0AEBV12@00@Z)
        783  30E 0000620D ?replace@mstring@mst@@QEAAAEAV12@_K0AEBV12@@Z = @ILT+21000(?replace@mstring@mst@@QEAAAEAV12@_K0AEBV12@@Z)
        784  30F 0000506F ?replace@mstring@mst@@QEAAAEAV12@_K0PEBD0@Z = @ILT+16490(?replace@mstring@mst@@QEAAAEAV12@_K0PEBD0@Z)
        785  310 000015E1 ?replace@mstring@mst@@QEAAAEAV12@_K0PEBD@Z = @ILT+1500(?replace@mstring@mst@@QEAAAEAV12@_K0PEBD@Z)
        786  311 00004C46 ?resize@int_collection@mst@@QEAAX_K@Z = @ILT+15425(?resize@int_collection@mst@@QEAAX_K@Z)
        787  312 000071E4 ?resize@int_collection@mst@@QEAAX_KAEBH@Z = @ILT+25055(?resize@int_collection@mst@@QEAAX_KAEBH@Z)
        788  313 00006974 ?resize@mstring@mst@@QEAAX_K@Z = @ILT+22895(?resize@mstring@mst@@QEAAX_K@Z)
        789  314 000046B5 ?resize@mstring@mst@@QEAAX_KAEBD@Z = @ILT+14000(?resize@mstring@mst@@QEAAX_KAEBD@Z)
        790  315 00003279 ?resize@object_collection@mst@@QEAAX_K@Z = @ILT+8820(?resize@object_collection@mst@@QEAAX_K@Z)
        791  316 000012DA ?resize@object_collection@mst@@QEAAX_KAEBQEAVobject@2@@Z = @ILT+725(?resize@object_collection@mst@@QEAAX_KAEBQEAVobject@2@@Z)
        792  317 00001A00 ?resize@point_collection@mst@@QEAAX_K@Z = @ILT+2555(?resize@point_collection@mst@@QEAAX_K@Z)
        793  318 00001B5E ?resize@point_collection@mst@@QEAAX_KAEBVpoint@2@@Z = @ILT+2905(?resize@point_collection@mst@@QEAAX_KAEBVpoint@2@@Z)
        794  319 00005547 ?resize@widget@mst@@UEAAXAEBVsize@2@@Z = @ILT+17730(?resize@widget@mst@@UEAAXAEBVsize@2@@Z)
        795  31A 000020FE ?resize@widget_collection@mst@@QEAAX_K@Z = @ILT+4345(?resize@widget_collection@mst@@QEAAX_K@Z)
        796  31B 00001712 ?resize@widget_collection@mst@@QEAAX_KAEBQEAVwidget@2@@Z = @ILT+1805(?resize@widget_collection@mst@@QEAAX_KAEBQEAVwidget@2@@Z)
        797  31C 00001D5C ?rfind@mstring@mst@@QEBA_KAEBV12@_K@Z = @ILT+3415(?rfind@mstring@mst@@QEBA_KAEBV12@_K@Z)
        798  31D 00002126 ?rfind@mstring@mst@@QEBA_KD_K@Z = @ILT+4385(?rfind@mstring@mst@@QEBA_KD_K@Z)
        799  31E 00003DF5 ?rfind@mstring@mst@@QEBA_KPEBD_K1@Z = @ILT+11760(?rfind@mstring@mst@@QEBA_KPEBD_K1@Z)
        800  31F 00004AE8 ?rfind@mstring@mst@@QEBA_KPEBD_K@Z = @ILT+15075(?rfind@mstring@mst@@QEBA_KPEBD_K@Z)
        801  320 000045AC ?run@application@mst@@QEAAHXZ = @ILT+13735(?run@application@mst@@QEAAHXZ)
        802  321 00006F0F ?run_tests@mst@@YAHXZ = @ILT+24330(?run_tests@mst@@YAHXZ)
        803  322 0000515F ?set_anti_alias@painter@mst@@QEAAX_N@Z = @ILT+16730(?set_anti_alias@painter@mst@@QEAAX_N@Z)
        804  323 00004DFE ?set_bounds@button@mst@@UEAAXAEBVrect@2@@Z = @ILT+15865(?set_bounds@button@mst@@UEAAXAEBVrect@2@@Z)
        805  324 0000268F ?set_bounds@widget@mst@@UEAAXAEBVrect@2@@Z = @ILT+5770(?set_bounds@widget@mst@@UEAAXAEBVrect@2@@Z)
        806  325 000054ED ?set_fill_color@painter@mst@@QEAAXAEBVcolor@2@@Z = @ILT+17640(?set_fill_color@painter@mst@@QEAAXAEBVcolor@2@@Z)
        807  326 00006960 ?set_font@painter@mst@@QEAAXAEBVfont@2@@Z = @ILT+22875(?set_font@painter@mst@@QEAAXAEBVfont@2@@Z)
        808  327 00002784 ?set_gradient@painter@mst@@QEAAXPEAVlinear_gradient@2@@Z = @ILT+6015(?set_gradient@painter@mst@@QEAAXPEAVlinear_gradient@2@@Z)
        809  328 000068A2 ?set_height@widget@mst@@QEAAXH@Z = @ILT+22685(?set_height@widget@mst@@QEAAXH@Z)
        810  329 00004A25 ?set_parent@button@mst@@UEAAXPEAVwidget@2@@Z = @ILT+14880(?set_parent@button@mst@@UEAAXPEAVwidget@2@@Z)
        811  32A 0000318E ?set_parent@widget@mst@@UEAAXPEAV12@@Z = @ILT+8585(?set_parent@widget@mst@@UEAAXPEAV12@@Z)
        812  32B 00007397 ?set_stroke_cap@painter@mst@@QEAAXW4cap@12@@Z = @ILT+25490(?set_stroke_cap@painter@mst@@QEAAXW4cap@12@@Z)
        813  32C 00002392 ?set_stroke_color@painter@mst@@QEAAXAEBVcolor@2@@Z = @ILT+5005(?set_stroke_color@painter@mst@@QEAAXAEBVcolor@2@@Z)
        814  32D 00003A71 ?set_stroke_join@painter@mst@@QEAAXW4join@12@@Z = @ILT+10860(?set_stroke_join@painter@mst@@QEAAXW4join@12@@Z)
        815  32E 00004160 ?set_stroke_width@painter@mst@@QEAAXI@Z = @ILT+12635(?set_stroke_width@painter@mst@@QEAAXI@Z)
        816  32F 0000630C ?set_text@button@mst@@UEAAXAEBVmstring@2@@Z = @ILT+21255(?set_text@button@mst@@UEAAXAEBVmstring@2@@Z)
        817  330 00006E42 ?set_text@widget@mst@@UEAAXAEBVmstring@2@@Z = @ILT+24125(?set_text@widget@mst@@UEAAXAEBVmstring@2@@Z)
        818  331 0000631B ?set_width@widget@mst@@QEAAXH@Z = @ILT+21270(?set_width@widget@mst@@QEAAXH@Z)
        819  332 00003F67 ?set_window@application@mst@@QEAAXPEAVwindow@2@@Z = @ILT+12130(?set_window@application@mst@@QEAAXPEAVwindow@2@@Z)
        820  333 00003C5B ?set_x@widget@mst@@QEAAXH@Z = @ILT+11350(?set_x@widget@mst@@QEAAXH@Z)
        821  334 000020CC ?set_y@widget@mst@@QEAAXH@Z = @ILT+4295(?set_y@widget@mst@@QEAAXH@Z)
        822  335 00005858 ?show@window@mst@@QEAAXXZ = @ILT+18515(?show@window@mst@@QEAAXXZ)
        823  336 00004FE3 ?size@int_collection@mst@@QEBA_KXZ = @ILT+16350(?size@int_collection@mst@@QEBA_KXZ)
        824  337 000025F9 ?size@mstring@mst@@QEBA_KXZ = @ILT+5620(?size@mstring@mst@@QEBA_KXZ)
        825  338 00001CC6 ?size@object_collection@mst@@QEBA_KXZ = @ILT+3265(?size@object_collection@mst@@QEBA_KXZ)
        826  339 000028CE ?size@point_collection@mst@@QEBA_KXZ = @ILT+6345(?size@point_collection@mst@@QEBA_KXZ)
        827  33A 0000762B ?size@widget_collection@mst@@QEBA_KXZ = @ILT+26150(?size@widget_collection@mst@@QEBA_KXZ)
        828  33B 00005E0C ?src_method_name@handler_connection_base@mst@@QEAA?AV?$basic_string@DU?$char_traits@D@std@@V?$allocator@D@2@@std@@XZ = @ILT+19975(?src_method_name@handler_connection_base@mst@@QEAA?AV?$basic_string@DU?$char_traits@D@std@@V?$allocator@D@2@@std@@XZ)
        829  33C 00005EF2 ?src_object@handler_connection_base@mst@@QEAAPEAVwidget@2@XZ = @ILT+20205(?src_object@handler_connection_base@mst@@QEAAPEAVwidget@2@XZ)
        830  33D 00002775 ?stroke_ellipse@painter@mst@@QEAAXAEBVrect@2@@Z = @ILT+6000(?stroke_ellipse@painter@mst@@QEAAXAEBVrect@2@@Z)
        831  33E 000063D9 ?stroke_ellipse@painter@mst@@QEAAXHHII@Z = @ILT+21460(?stroke_ellipse@painter@mst@@QEAAXHHII@Z)
        832  33F 00002734 ?stroke_rect@painter@mst@@QEAAXAEBVrect@2@@Z = @ILT+5935(?stroke_rect@painter@mst@@QEAAXAEBVrect@2@@Z)
        833  340 00001037 ?stroke_rect@painter@mst@@QEAAXHHII@Z = @ILT+50(?stroke_rect@painter@mst@@QEAAXHHII@Z)
        834  341 000026A3 ?substr@mstring@mst@@QEBA?AV12@_K0@Z = @ILT+5790(?substr@mstring@mst@@QEBA?AV12@_K0@Z)
        835  342 000062D5 ?swap@int_collection@mst@@QEAAXAEAV12@@Z = @ILT+21200(?swap@int_collection@mst@@QEAAXAEAV12@@Z)
        836  343 00001744 ?swap@mst@@YAXAEAVmstring@1@0@Z = @ILT+1855(?swap@mst@@YAXAEAVmstring@1@0@Z)
        837  344 00002F72 ?swap@mstring@mst@@QEAAXAEAV12@@Z = @ILT+8045(?swap@mstring@mst@@QEAAXAEAV12@@Z)
        838  345 00003468 ?swap@object_collection@mst@@QEAAXAEAV12@@Z = @ILT+9315(?swap@object_collection@mst@@QEAAXAEAV12@@Z)
        839  346 00005D03 ?swap@point_collection@mst@@QEAAXAEAV12@@Z = @ILT+19710(?swap@point_collection@mst@@QEAAXAEAV12@@Z)
        840  347 0000279D ?swap@widget_collection@mst@@QEAAXAEAV12@@Z = @ILT+6040(?swap@widget_collection@mst@@QEAAXAEAV12@@Z)
        841  348 000012DF ?text@button@mst@@QEAA?AV?$basic_string@DU?$char_traits@D@std@@V?$allocator@D@2@@std@@XZ = @ILT+730(?text@button@mst@@QEAA?AV?$basic_string@DU?$char_traits@D@std@@V?$allocator@D@2@@std@@XZ)
        842  349 00006C03 ?to_string@mst@@YA?AVmstring@1@H@Z = @ILT+23550(?to_string@mst@@YA?AVmstring@1@H@Z)
        843  34A 00006C7B ?to_string@mst@@YA?AVmstring@1@I@Z = @ILT+23670(?to_string@mst@@YA?AVmstring@1@I@Z)
        844  34B 00006C80 ?to_string@mst@@YA?AVmstring@1@J@Z = @ILT+23675(?to_string@mst@@YA?AVmstring@1@J@Z)
        845  34C 00006BFE ?to_string@mst@@YA?AVmstring@1@K@Z = @ILT+23545(?to_string@mst@@YA?AVmstring@1@K@Z)
        846  34D 00006BF9 ?to_string@mst@@YA?AVmstring@1@M@Z = @ILT+23540(?to_string@mst@@YA?AVmstring@1@M@Z)
        847  34E 00006BF4 ?to_string@mst@@YA?AVmstring@1@N@Z = @ILT+23535(?to_string@mst@@YA?AVmstring@1@N@Z)
        848  34F 00006E88 ?to_string@mst@@YA?AVmstring@1@O@Z = @ILT+24195(?to_string@mst@@YA?AVmstring@1@O@Z)
        849  350 0000740A ?to_string@mst@@YA?AVmstring@1@_J@Z = @ILT+25605(?to_string@mst@@YA?AVmstring@1@_J@Z)
        850  351 00007405 ?to_string@mst@@YA?AVmstring@1@_K@Z = @ILT+25600(?to_string@mst@@YA?AVmstring@1@_K@Z)
        851  352 00184054 ?white@color@mst@@2V12@B = ?white@color@mst@@2V12@B (public: static class mst::color const mst::color::white)
        852  353 0000586C ?width@image@mst@@QEAAHXZ = @ILT+18535(?width@image@mst@@QEAAHXZ)
        853  354 00003C6F ?width@widget@mst@@QEAAHXZ = @ILT+11370(?width@widget@mst@@QEAAHXZ)
        854  355 0000742D ?x@widget@mst@@QEAAHXZ = @ILT+25640(?x@widget@mst@@QEAAHXZ)
        855  356 00002F0E ?xdpi@application@mst@@QEAAMXZ = @ILT+7945(?xdpi@application@mst@@QEAAMXZ)
        856  357 00006582 ?y@widget@mst@@QEAAHXZ = @ILT+21885(?y@widget@mst@@QEAAHXZ)
        857  358 00003DE1 ?ydpi@application@mst@@QEAAMXZ = @ILT+11740(?ydpi@application@mst@@QEAAMXZ)

  Summary

        1000 .00cfg
        3000 .data
        6000 .idata
       19000 .pdata
       65000 .rdata
        2000 .reloc
        1000 .rsrc
      11C000 .text
        1000 .tls
